

Microchip Technology PIC18 LITE Macro Assembler V1.38 build -256452561 
                                                                                               Fri Dec 22 11:16:02 2017

Microchip Technology Omniscient Code Generator v1.38 (Free mode) build 201607010351
     1                           	processor	18F2431
     2                           	fnconf	rparam,??,?,0
     3                           	opt	pw 120
     4                           	opt	lm
     5                           	psect	idataCOMRAM,global,class=CODE,delta=1
     6                           	psect	idataBANK1,global,class=CODE,delta=1
     7                           	psect	smallconst,global,reloc=2,class=SMALLCONST,delta=1
     8                           	psect	nvBANK0,global,class=BANK0,space=1,delta=1
     9                           	psect	cinit,global,reloc=2,class=CODE,delta=1
    10                           	psect	bssCOMRAM,global,class=COMRAM,space=1,delta=1
    11                           	psect	dataCOMRAM,global,class=COMRAM,space=1,delta=1
    12                           	psect	bssBANK0,global,class=BANK0,space=1,delta=1
    13                           	psect	bssBANK1,global,class=BANK1,space=1,delta=1
    14                           	psect	dataBANK1,global,class=BANK1,space=1,delta=1
    15                           	psect	cstackBANK0,global,class=BANK0,space=1,delta=1
    16                           	psect	cstackCOMRAM,global,class=COMRAM,space=1,delta=1
    17                           	psect	text0,global,reloc=2,class=CODE,delta=1
    18                           	psect	text1,global,reloc=2,class=CODE,delta=1
    19                           	psect	text2,global,reloc=2,class=CODE,delta=1
    20                           	psect	text3,global,reloc=2,class=CODE,delta=1
    21                           	psect	text4,global,reloc=2,class=CODE,delta=1
    22                           	psect	text5,global,reloc=2,class=CODE,delta=1
    23                           	psect	text6,global,reloc=2,class=CODE,delta=1
    24                           	psect	text7,global,reloc=2,class=CODE,delta=1
    25                           	psect	text8,global,reloc=2,class=CODE,delta=1
    26                           	psect	text9,global,reloc=2,class=CODE,delta=1
    27                           	psect	text10,global,reloc=2,class=CODE,delta=1
    28                           	psect	text11,global,reloc=2,class=CODE,delta=1
    29                           	psect	text12,global,reloc=2,class=CODE,delta=1
    30                           	psect	text13,global,reloc=2,class=CODE,delta=1
    31                           	psect	text14,global,reloc=2,class=CODE,delta=1
    32                           	psect	text15,global,reloc=2,class=CODE,delta=1
    33                           	psect	intcode,global,reloc=2,class=CODE,delta=1
    34                           	psect	text17,global,reloc=2,class=CODE,delta=1
    35                           	psect	text18,global,reloc=2,class=CODE,delta=1
    36                           	psect	text19,global,reloc=2,class=CODE,delta=1
    37                           	psect	text20,global,reloc=2,class=CODE,delta=1
    38                           	psect	text21,global,reloc=2,class=CODE,delta=1
    39                           	psect	text22,global,reloc=2,class=CODE,delta=1
    40                           	psect	text23,global,reloc=2,class=CODE,delta=1
    41                           	psect	text24,global,reloc=2,class=CODE,delta=1
    42                           	psect	text25,global,reloc=2,class=CODE,delta=1
    43                           	psect	text26,global,reloc=2,class=CODE,delta=1
    44                           	psect	text27,global,reloc=2,class=CODE,delta=1
    45                           	psect	text28,global,reloc=2,class=CODE,delta=1
    46                           	psect	text29,global,reloc=2,class=CODE,delta=1
    47                           	psect	text30,global,reloc=2,class=CODE,delta=1
    48                           	psect	text31,global,reloc=2,class=CODE,delta=1
    49                           	psect	intsave_regs,global,class=BIGRAM,space=1,delta=1
    50                           	psect	rparam,global,class=COMRAM,space=1,delta=1
    51                           	psect	temp,global,ovrld,common,class=COMRAM,space=1,delta=1
    52  0000                     
    53                           	psect	idataCOMRAM
    54  001D74                     __pidataCOMRAM:
    55                           	opt stack 0
    56                           
    57                           ;initializer for _Frequency
    58  001D74  00                 	db	0
    59  001D75  A0                 	db	160
    60  001D76  40                 	db	64
    61                           
    62                           	psect	idataBANK1
    63  001D6C                     __pidataBANK1:
    64                           	opt stack 0
    65                           
    66                           ;initializer for vDisplayAscii@F3294
    67  001D6C  000A               	dw	10
    68  001D6E  0064               	dw	100
    69  001D70  03E8               	dw	1000
    70  001D72  2710               	dw	10000
    71                           
    72                           	psect	smallconst
    73  000400                     __psmallconst:
    74                           	opt stack 0
    75  000400  00                 	db	0
    76  000401                     _SINE_TABLE:
    77                           	opt stack 0
    78  000401  00A0               	dw	160
    79  000403  00AA               	dw	170
    80  000405  00B4               	dw	180
    81  000407  00BE               	dw	190
    82  000409  00C8               	dw	200
    83  00040B  00D1               	dw	209
    84  00040D  00DB               	dw	219
    85  00040F  00E4               	dw	228
    86  000411  00ED               	dw	237
    87  000413  00F6               	dw	246
    88  000415  00FE               	dw	254
    89  000417  0106               	dw	262
    90  000419  010E               	dw	270
    91  00041B  0115               	dw	277
    92  00041D  011B               	dw	283
    93  00041F  0121               	dw	289
    94  000421  0127               	dw	295
    95  000423  012C               	dw	300
    96  000425  0131               	dw	305
    97  000427  0134               	dw	308
    98  000429  0138               	dw	312
    99  00042B  013B               	dw	315
   100  00042D  013D               	dw	317
   101  00042F  013E               	dw	318
   102  000431  013F               	dw	319
   103  000433  013F               	dw	319
   104  000435  013E               	dw	318
   105  000437  013D               	dw	317
   106  000439  013C               	dw	316
   107  00043B  0139               	dw	313
   108  00043D  0136               	dw	310
   109  00043F  0133               	dw	307
   110  000441  012E               	dw	302
   111  000443  012A               	dw	298
   112  000445  0124               	dw	292
   113  000447  011E               	dw	286
   114  000449  0118               	dw	280
   115  00044B  0111               	dw	273
   116  00044D  010A               	dw	266
   117  00044F  0102               	dw	258
   118  000451  00FA               	dw	250
   119  000453  00F1               	dw	241
   120  000455  00E9               	dw	233
   121  000457  00DF               	dw	223
   122  000459  00D6               	dw	214
   123  00045B  00CC               	dw	204
   124  00045D  00C3               	dw	195
   125  00045F  00B9               	dw	185
   126  000461  00AF               	dw	175
   127  000463  00A5               	dw	165
   128  000465  009A               	dw	154
   129  000467  0090               	dw	144
   130  000469  0086               	dw	134
   131  00046B  007C               	dw	124
   132  00046D  0073               	dw	115
   133  00046F  0069               	dw	105
   134  000471  0060               	dw	96
   135  000473  0056               	dw	86
   136  000475  004E               	dw	78
   137  000477  0045               	dw	69
   138  000479  003D               	dw	61
   139  00047B  0035               	dw	53
   140  00047D  002E               	dw	46
   141  00047F  0027               	dw	39
   142  000481  0021               	dw	33
   143  000483  001B               	dw	27
   144  000485  0015               	dw	21
   145  000487  0011               	dw	17
   146  000489  000C               	dw	12
   147  00048B  0009               	dw	9
   148  00048D  0006               	dw	6
   149  00048F  0003               	dw	3
   150  000491  0002               	dw	2
   151  000493  0001               	dw	1
   152  000495  0000               	dw	0
   153  000497  0000               	dw	0
   154  000499  0001               	dw	1
   155  00049B  0002               	dw	2
   156  00049D  0004               	dw	4
   157  00049F  0007               	dw	7
   158  0004A1  000B               	dw	11
   159  0004A3  000E               	dw	14
   160  0004A5  0013               	dw	19
   161  0004A7  0018               	dw	24
   162  0004A9  001E               	dw	30
   163  0004AB  0024               	dw	36
   164  0004AD  002A               	dw	42
   165  0004AF  0031               	dw	49
   166  0004B1  0039               	dw	57
   167  0004B3  0041               	dw	65
   168  0004B5  0049               	dw	73
   169  0004B7  0052               	dw	82
   170  0004B9  005B               	dw	91
   171  0004BB  0064               	dw	100
   172  0004BD  006E               	dw	110
   173  0004BF  0077               	dw	119
   174  0004C1  0081               	dw	129
   175  0004C3  008B               	dw	139
   176  0004C5  0095               	dw	149
   177  0004C7  00A0               	dw	160
   178  0004C9                     __end_of_SINE_TABLE:
   179                           	opt stack 0
   180  0004C9  0A                 	db	10
   181  0004CA  00                 	db	0
   182  0004CB  0D                 	db	13
   183  0004CC  00                 	db	0
   184                           
   185                           ; #config settings
   186  0004CD  00                 	db	0	; dummy byte at the end
   187  0000                     
   188                           	psect	nvBANK0
   189  0000F9                     __pnvBANK0:
   190                           	opt stack 0
   191  0000F9                     _A:
   192                           	opt stack 0
   193  0000F9                     	ds	3
   194  0000FC                     _B_1:
   195                           	opt stack 0
   196  0000FC                     	ds	3
   197  0000                     _ADCON1	set	4033
   198  0000                     _ADCON2	set	4032
   199  0000                     _ADCON3	set	3994
   200  0000                     _ADRESH	set	4036
   201  0000                     _ADRESL	set	4035
   202  0000                     _BAUDCONbits	set	4010
   203  0000                     _DTCON	set	3949
   204  0000                     _OSCCON	set	4051
   205  0000                     _OVDCOND	set	3947
   206  0000                     _OVDCONS	set	3946
   207  0000                     _PDC0H	set	3960
   208  0000                     _PDC0L	set	3961
   209  0000                     _PDC1H	set	3958
   210  0000                     _PDC1L	set	3959
   211  0000                     _PDC2H	set	3956
   212  0000                     _PDC2L	set	3957
   213  0000                     _PIE1bits	set	3997
   214  0000                     _PIR1bits	set	3998
   215  0000                     _PTCON0	set	3967
   216  0000                     _PTPERH	set	3962
   217  0000                     _PTPERL	set	3963
   218  0000                     _PWMCON0	set	3951
   219  0000                     _PWMCON1	set	3950
   220  0000                     _RCREG1	set	4014
   221  0000                     _RCSTA1bits	set	4011
   222  0000                     _RCSTAbits	set	4011
   223  0000                     _SEVTCMPL	set	3953
   224  0000                     _SPBRG1	set	4015
   225  0000                     _TRISB	set	3987
   226  0000                     _TRISCbits	set	3988
   227  0000                     _TXREG	set	4013
   228  0000                     _TXSTAbits	set	4012
   229  0000                     _ACMOD0	set	32274
   230  0000                     _ACMOD1	set	32275
   231  0000                     _ACONV	set	32277
   232  0000                     _ACSCH	set	32276
   233  0000                     _ADON	set	32272
   234  0000                     _ANS0	set	32192
   235  0000                     _ANS1	set	32193
   236  0000                     _ANS2	set	32194
   237  0000                     _ANS3	set	32195
   238  0000                     _ANS4	set	32196
   239  0000                     _GASEL0	set	31944
   240  0000                     _GASEL1	set	31945
   241  0000                     _GBSEL0	set	31948
   242  0000                     _GBSEL1	set	31949
   243  0000                     _GIE	set	32663
   244  0000                     _GODONE	set	32273
   245  0000                     _GO_DONE	set	32273
   246  0000                     _PEIE	set	32662
   247  0000                     _PSA	set	32427
   248  0000                     _PTEN	set	31735
   249  0000                     _PTIE	set	32028
   250  0000                     _PTIF	set	32036
   251  0000                     _PWMEN0	set	31612
   252  0000                     _PWMEN1	set	31613
   253  0000                     _PWMEN2	set	31614
   254  0000                     _RA2	set	31746
   255  0000                     _RA3	set	31747
   256  0000                     _RA4	set	31748
   257  0000                     _RA6	set	31750
   258  0000                     _RA7	set	31751
   259  0000                     _RB0	set	31752
   260  0000                     _RB1	set	31753
   261  0000                     _RB2	set	31754
   262  0000                     _RB3	set	31755
   263  0000                     _RB4	set	31756
   264  0000                     _RB5	set	31757
   265  0000                     _RC0	set	31760
   266  0000                     _RC1	set	31761
   267  0000                     _RC2	set	31762
   268  0000                     _RC3	set	31763
   269  0000                     _RC4	set	31764
   270  0000                     _RC5	set	31765
   271  0000                     _T016BIT	set	32430
   272  0000                     _T0CS	set	32429
   273  0000                     _T0PS0	set	32424
   274  0000                     _T0PS1	set	32425
   275  0000                     _T0PS2	set	32426
   276  0000                     _T0SE	set	32428
   277  0000                     _TMR0IE	set	32661
   278  0000                     _TMR0IF	set	32658
   279  0000                     _TMR0ON	set	32431
   280  0000                     _TRISA2	set	31890
   281  0000                     _TRISA3	set	31891
   282  0000                     _TRISA4	set	31892
   283  0000                     _TRISA6	set	31894
   284  0000                     _TRISA7	set	31895
   285  0000                     _TRISB0	set	31896
   286  0000                     _TRISB1	set	31897
   287  0000                     _TRISB2	set	31898
   288  0000                     _TRISB3	set	31899
   289  0000                     _TRISB4	set	31900
   290  0000                     _TRISB5	set	31901
   291  0000                     _TRISC0	set	31904
   292  0000                     _TRISC1	set	31905
   293  0000                     _TRISC2	set	31906
   294  0000                     _TRISC3	set	31907
   295  0000                     _TRISC4	set	31908
   296  0000                     _TRISC5	set	31909
   297  0000                     _TXIF	set	31988
   298                           
   299                           	psect	cinit
   300  001B0A                     __pcinit:
   301                           	opt stack 0
   302  001B0A                     start_initialization:
   303                           	opt stack 0
   304  001B0A                     __initialization:
   305                           	opt stack 0
   306                           
   307                           ; Initialize objects allocated to BANK1 (8 bytes)
   308                           ; load TBLPTR registers with __pidataBANK1
   309  001B0A  0E6C               	movlw	low __pidataBANK1
   310  001B0C  6EF6               	movwf	tblptrl,c
   311  001B0E  0E1D               	movlw	high __pidataBANK1
   312  001B10  6EF7               	movwf	tblptrh,c
   313  001B12  0E00               	movlw	low (__pidataBANK1 shr (0+16))
   314  001B14  6EF8               	movwf	tblptru,c
   315  001B16  EE01  F030         	lfsr	0,__pdataBANK1
   316  001B1A  EE10 F008          	lfsr	1,8
   317  001B1E                     copy_data0:
   318  001B1E  0009               	tblrd		*+
   319  001B20  CFF5 FFEE          	movff	tablat,postinc0
   320  001B24  50E5               	movf	postdec1,w,c
   321  001B26  50E1               	movf	fsr1l,w,c
   322  001B28  E1FA               	bnz	copy_data0
   323                           
   324                           ; Initialize objects allocated to COMRAM (3 bytes)
   325                           ; load TBLPTR registers with __pidataCOMRAM
   326  001B2A  0E74               	movlw	low __pidataCOMRAM
   327  001B2C  6EF6               	movwf	tblptrl,c
   328  001B2E  0E1D               	movlw	high __pidataCOMRAM
   329  001B30  6EF7               	movwf	tblptrh,c
   330  001B32  0E00               	movlw	low (__pidataCOMRAM shr (0+16))
   331  001B34  6EF8               	movwf	tblptru,c
   332  001B36  0009               	tblrd		*+	;fetch initializer
   333  001B38  CFF5 F05C          	movff	tablat,__pdataCOMRAM
   334  001B3C  0009               	tblrd		*+	;fetch initializer
   335  001B3E  CFF5 F05D          	movff	tablat,__pdataCOMRAM+1
   336  001B42  0009               	tblrd		*+	;fetch initializer
   337  001B44  CFF5 F05E          	movff	tablat,__pdataCOMRAM+2
   338                           
   339                           ; Clear objects allocated to BANK1 (48 bytes)
   340  001B48  EE01  F000         	lfsr	0,__pbssBANK1
   341  001B4C  0E30               	movlw	48
   342  001B4E                     clear_0:
   343  001B4E  6AEE               	clrf	postinc0,c
   344  001B50  06E8               	decf	wreg,f,c
   345  001B52  E1FD               	bnz	clear_0
   346                           
   347                           ; Clear objects allocated to BANK0 (90 bytes)
   348  001B54  EE00  F060         	lfsr	0,__pbssBANK0
   349  001B58  0E5A               	movlw	90
   350  001B5A                     clear_1:
   351  001B5A  6AEE               	clrf	postinc0,c
   352  001B5C  06E8               	decf	wreg,f,c
   353  001B5E  E1FD               	bnz	clear_1
   354                           
   355                           ; Clear objects allocated to COMRAM (25 bytes)
   356  001B60  EE00  F043         	lfsr	0,__pbssCOMRAM
   357  001B64  0E19               	movlw	25
   358  001B66                     clear_2:
   359  001B66  6AEE               	clrf	postinc0,c
   360  001B68  06E8               	decf	wreg,f,c
   361  001B6A  E1FD               	bnz	clear_2
   362  001B6C                     end_of_initialization:
   363                           	opt stack 0
   364  001B6C                     __end_of__initialization:
   365                           	opt stack 0
   366  001B6C  905F               	bcf	int$flags,0,c	;clear compiler interrupt flag (level 1)
   367  001B6E  925F               	bcf	int$flags,1,c	;clear compiler interrupt flag (level 2)
   368  001B70  0E00               	movlw	low (__Lsmallconst shr (0+16))
   369  001B72  6EF8               	movwf	tblptru,c
   370  001B74  0E04               	movlw	high __Lsmallconst
   371  001B76  6EF7               	movwf	tblptrh,c
   372  001B78  0100               	movlb	0
   373  001B7A  EF67  F002         	goto	_main	;jump to C main() function
   374                           tblptru	equ	0xFF8
   375                           tblptrh	equ	0xFF7
   376                           tblptrl	equ	0xFF6
   377                           tablat	equ	0xFF5
   378                           postinc0	equ	0xFEE
   379                           wreg	equ	0xFE8
   380                           postdec1	equ	0xFE5
   381                           fsr1l	equ	0xFE1
   382                           
   383                           	psect	bssCOMRAM
   384  000043                     __pbssCOMRAM:
   385                           	opt stack 0
   386  000043                     _Vab:
   387                           	opt stack 0
   388  000043                     	ds	4
   389  000047                     _Auto_Manual:
   390                           	opt stack 0
   391  000047                     	ds	2
   392  000049                     _ON_OFF:
   393                           	opt stack 0
   394  000049                     	ds	2
   395  00004B                     _Auto_VFD_ON:
   396                           	opt stack 0
   397  00004B                     	ds	1
   398  00004C                     _DC_Bus_Voltage_Extrem_Low:
   399                           	opt stack 0
   400  00004C                     	ds	1
   401  00004D                     _DC_Bus_Voltage_High:
   402                           	opt stack 0
   403  00004D                     	ds	1
   404  00004E                     _DC_Bus_Voltage_Low:
   405                           	opt stack 0
   406  00004E                     	ds	1
   407  00004F                     _Dc_Bus_Current:
   408                           	opt stack 0
   409  00004F                     	ds	1
   410  000050                     _Dc_Bus_Extrem_Low_Counter:
   411                           	opt stack 0
   412  000050                     	ds	1
   413  000051                     _Dc_Bus_High_Counter:
   414                           	opt stack 0
   415  000051                     	ds	1
   416  000052                     _Dc_Bus_Low_Counter:
   417                           	opt stack 0
   418  000052                     	ds	1
   419  000053                     _Five_Second_counter:
   420                           	opt stack 0
   421  000053                     	ds	1
   422  000054                     _LOGIC_ERROR_FLAG:
   423                           	opt stack 0
   424  000054                     	ds	1
   425  000055                     _PWM_Init:
   426                           	opt stack 0
   427  000055                     	ds	1
   428  000056                     _VFD_SHORT_CIRCUIT:
   429                           	opt stack 0
   430  000056                     	ds	1
   431  000057                     _VFD_SHORT_CIRCUIT_ERROR_flag:
   432                           	opt stack 0
   433  000057                     	ds	1
   434  000058                     _counter:
   435                           	opt stack 0
   436  000058                     	ds	1
   437  000059                     _gDutycount:
   438                           	opt stack 0
   439  000059                     	ds	1
   440  00005A                     _gDutycount1:
   441                           	opt stack 0
   442  00005A                     	ds	1
   443  00005B                     _gDutycount2:
   444                           	opt stack 0
   445  00005B                     	ds	1
   446                           tblptru	equ	0xFF8
   447                           tblptrh	equ	0xFF7
   448                           tblptrl	equ	0xFF6
   449                           tablat	equ	0xFF5
   450                           postinc0	equ	0xFEE
   451                           wreg	equ	0xFE8
   452                           postdec1	equ	0xFE5
   453                           fsr1l	equ	0xFE1
   454                           
   455                           	psect	dataCOMRAM
   456  00005C                     __pdataCOMRAM:
   457                           	opt stack 0
   458  00005C                     _Frequency:
   459                           	opt stack 0
   460  00005C                     	ds	3
   461                           tblptru	equ	0xFF8
   462                           tblptrh	equ	0xFF7
   463                           tblptrl	equ	0xFF6
   464                           tablat	equ	0xFF5
   465                           postinc0	equ	0xFEE
   466                           wreg	equ	0xFE8
   467                           postdec1	equ	0xFE5
   468                           fsr1l	equ	0xFE1
   469                           
   470                           	psect	bssBANK0
   471  000060                     __pbssBANK0:
   472                           	opt stack 0
   473  000060                     _R_V_Arr:
   474                           	opt stack 0
   475  000060                     	ds	18
   476  000072                     _B:
   477                           	opt stack 0
   478  000072                     	ds	3
   479  000075                     _R_C:
   480                           	opt stack 0
   481  000075                     	ds	3
   482  000078                     _R_C_Max:
   483                           	opt stack 0
   484  000078                     	ds	3
   485  00007B                     _R_Current:
   486                           	opt stack 0
   487  00007B                     	ds	3
   488  00007E                     _R_Current_1:
   489                           	opt stack 0
   490  00007E                     	ds	3
   491  000081                     _R_V:
   492                           	opt stack 0
   493  000081                     	ds	3
   494  000084                     _R_V_Max:
   495                           	opt stack 0
   496  000084                     	ds	3
   497  000087                     _R_Volt_1:
   498                           	opt stack 0
   499  000087                     	ds	3
   500  00008A                     _R_Voltage:
   501                           	opt stack 0
   502  00008A                     	ds	3
   503  00008D                     _i:
   504                           	opt stack 0
   505  00008D                     	ds	3
   506  000090                     _DC_Volt_High:
   507                           	opt stack 0
   508  000090                     	ds	2
   509  000092                     _DC_Volt_Low:
   510                           	opt stack 0
   511  000092                     	ds	2
   512  000094                     _DC_Voltage_Data:
   513                           	opt stack 0
   514  000094                     	ds	2
   515  000096                     _Data_1:
   516                           	opt stack 0
   517  000096                     	ds	2
   518  000098                     _Data_Send_Flag:
   519                           	opt stack 0
   520  000098                     	ds	2
   521  00009A                     _Data_Send_Flag_1:
   522                           	opt stack 0
   523  00009A                     	ds	2
   524  00009C                     _PDC0_1:
   525                           	opt stack 0
   526  00009C                     	ds	2
   527  00009E                     _PDC1_1:
   528                           	opt stack 0
   529  00009E                     	ds	2
   530  0000A0                     _PDC2_1:
   531                           	opt stack 0
   532  0000A0                     	ds	2
   533  0000A2                     _R_Current_Data:
   534                           	opt stack 0
   535  0000A2                     	ds	2
   536  0000A4                     _Temp_Counter:
   537                           	opt stack 0
   538  0000A4                     	ds	2
   539  0000A6                     _Timer0_Overflow_counter:
   540                           	opt stack 0
   541  0000A6                     	ds	2
   542  0000A8                     _b:
   543                           	opt stack 0
   544  0000A8                     	ds	2
   545  0000AA                     _digit1:
   546                           	opt stack 0
   547  0000AA                     	ds	2
   548  0000AC                     _digit2:
   549                           	opt stack 0
   550  0000AC                     	ds	2
   551  0000AE                     _digit3:
   552                           	opt stack 0
   553  0000AE                     	ds	2
   554  0000B0                     _digit4:
   555                           	opt stack 0
   556  0000B0                     	ds	2
   557  0000B2                     _digit5:
   558                           	opt stack 0
   559  0000B2                     	ds	2
   560  0000B4                     _temp:
   561                           	opt stack 0
   562  0000B4                     	ds	2
   563  0000B6                     _ADC_Flag:
   564                           	opt stack 0
   565  0000B6                     	ds	1
   566  0000B7                     _Desired_Frequency:
   567                           	opt stack 0
   568  0000B7                     	ds	1
   569  0000B8                     _Error_no:
   570                           	opt stack 0
   571  0000B8                     	ds	1
   572  0000B9                     _Flag:
   573                           	opt stack 0
   574  0000B9                     	ds	1
   575                           tblptru	equ	0xFF8
   576                           tblptrh	equ	0xFF7
   577                           tblptrl	equ	0xFF6
   578                           tablat	equ	0xFF5
   579                           postinc0	equ	0xFEE
   580                           wreg	equ	0xFE8
   581                           postdec1	equ	0xFE5
   582                           fsr1l	equ	0xFE1
   583                           
   584                           	psect	bssBANK1
   585  000100                     __pbssBANK1:
   586                           	opt stack 0
   587  000100                     _R_C_Arr:
   588                           	opt stack 0
   589  000100                     	ds	18
   590  000112                     _Data:
   591                           	opt stack 0
   592  000112                     	ds	14
   593  000120                     _Vab_1:
   594                           	opt stack 0
   595  000120                     	ds	4
   596  000124                     _Current:
   597                           	opt stack 0
   598  000124                     	ds	3
   599  000127                     _Current_1:
   600                           	opt stack 0
   601  000127                     	ds	3
   602  00012A                     _Voltage:
   603                           	opt stack 0
   604  00012A                     	ds	3
   605  00012D                     _Voltage_1:
   606                           	opt stack 0
   607  00012D                     	ds	3
   608                           tblptru	equ	0xFF8
   609                           tblptrh	equ	0xFF7
   610                           tblptrl	equ	0xFF6
   611                           tablat	equ	0xFF5
   612                           postinc0	equ	0xFEE
   613                           wreg	equ	0xFE8
   614                           postdec1	equ	0xFE5
   615                           fsr1l	equ	0xFE1
   616                           
   617                           	psect	dataBANK1
   618  000130                     __pdataBANK1:
   619                           	opt stack 0
   620  000130                     vDisplayAscii@F3294:
   621                           	opt stack 0
   622  000130                     	ds	8
   623                           tblptru	equ	0xFF8
   624                           tblptrh	equ	0xFF7
   625                           tblptrl	equ	0xFF6
   626                           tablat	equ	0xFF5
   627                           postinc0	equ	0xFEE
   628                           wreg	equ	0xFE8
   629                           postdec1	equ	0xFE5
   630                           fsr1l	equ	0xFE1
   631                           
   632                           	psect	cstackBANK0
   633  0000BA                     __pcstackBANK0:
   634                           	opt stack 0
   635  0000BA                     ?_DC_Bus_Volt_ADC:
   636                           	opt stack 0
   637  0000BA                     ?_VFD_CURRENT_ADC:
   638                           	opt stack 0
   639  0000BA                     ?___ftpack:
   640                           	opt stack 0
   641  0000BA                     usart_str_1@str:
   642                           	opt stack 0
   643  0000BA                     ___ftpack@arg:
   644                           	opt stack 0
   645  0000BA                     ___ftge@ff1:
   646                           	opt stack 0
   647                           
   648                           ; 3 bytes @ 0x0
   649  0000BA                     	ds	2
   650  0000BC                     ??_DC_Bus_Volt_ADC:
   651  0000BC                     ??_VFD_CURRENT_ADC:
   652                           
   653                           ; 1 bytes @ 0x2
   654  0000BC                     	ds	1
   655  0000BD                     ___ftpack@exp:
   656                           	opt stack 0
   657  0000BD                     ___ftge@ff2:
   658                           	opt stack 0
   659                           
   660                           ; 3 bytes @ 0x3
   661  0000BD                     	ds	1
   662  0000BE                     ___ftpack@sign:
   663                           	opt stack 0
   664                           
   665                           ; 1 bytes @ 0x4
   666  0000BE                     	ds	1
   667  0000BF                     ??___ftpack:
   668                           
   669                           ; 1 bytes @ 0x5
   670  0000BF                     	ds	1
   671  0000C0                     ??___ftge:
   672                           
   673                           ; 1 bytes @ 0x6
   674  0000C0                     	ds	2
   675  0000C2                     ?___ftadd:
   676                           	opt stack 0
   677  0000C2                     ?___lwtoft:
   678                           	opt stack 0
   679  0000C2                     ___lwtoft@c:
   680                           	opt stack 0
   681  0000C2                     ___ftadd@f1:
   682                           	opt stack 0
   683                           
   684                           ; 3 bytes @ 0x8
   685  0000C2                     	ds	3
   686  0000C5                     ___ftadd@f2:
   687                           	opt stack 0
   688                           
   689                           ; 3 bytes @ 0xB
   690  0000C5                     	ds	3
   691  0000C8                     ??___ftadd:
   692                           
   693                           ; 1 bytes @ 0xE
   694  0000C8                     	ds	3
   695  0000CB                     ___ftadd@sign:
   696                           	opt stack 0
   697                           
   698                           ; 1 bytes @ 0x11
   699  0000CB                     	ds	1
   700  0000CC                     ___ftadd@exp2:
   701                           	opt stack 0
   702                           
   703                           ; 1 bytes @ 0x12
   704  0000CC                     	ds	1
   705  0000CD                     ___ftadd@exp1:
   706                           	opt stack 0
   707                           
   708                           ; 1 bytes @ 0x13
   709  0000CD                     	ds	1
   710  0000CE                     ?___ftdiv:
   711                           	opt stack 0
   712  0000CE                     ?___ftmul:
   713                           	opt stack 0
   714  0000CE                     ___ftdiv@f1:
   715                           	opt stack 0
   716  0000CE                     ___ftmul@f1:
   717                           	opt stack 0
   718                           
   719                           ; 3 bytes @ 0x14
   720  0000CE                     	ds	3
   721  0000D1                     ___ftdiv@f2:
   722                           	opt stack 0
   723  0000D1                     ___ftmul@f2:
   724                           	opt stack 0
   725                           
   726                           ; 3 bytes @ 0x17
   727  0000D1                     	ds	3
   728  0000D4                     ??___ftdiv:
   729  0000D4                     ??___ftmul:
   730                           
   731                           ; 1 bytes @ 0x1A
   732  0000D4                     	ds	3
   733  0000D7                     ___ftdiv@cntr:
   734                           	opt stack 0
   735  0000D7                     ___ftmul@exp:
   736                           	opt stack 0
   737                           
   738                           ; 1 bytes @ 0x1D
   739  0000D7                     	ds	1
   740  0000D8                     ___ftdiv@f3:
   741                           	opt stack 0
   742  0000D8                     ___ftmul@f3_as_product:
   743                           	opt stack 0
   744                           
   745                           ; 3 bytes @ 0x1E
   746  0000D8                     	ds	3
   747  0000DB                     ___ftdiv@exp:
   748                           	opt stack 0
   749  0000DB                     ___ftmul@cntr:
   750                           	opt stack 0
   751                           
   752                           ; 1 bytes @ 0x21
   753  0000DB                     	ds	1
   754  0000DC                     ___ftdiv@sign:
   755                           	opt stack 0
   756  0000DC                     ___ftmul@sign:
   757                           	opt stack 0
   758                           
   759                           ; 1 bytes @ 0x22
   760  0000DC                     	ds	1
   761  0000DD                     ?___fttol:
   762                           	opt stack 0
   763  0000DD                     ___fttol@f1:
   764                           	opt stack 0
   765                           
   766                           ; 3 bytes @ 0x23
   767  0000DD                     	ds	4
   768  0000E1                     ??___fttol:
   769                           
   770                           ; 1 bytes @ 0x27
   771  0000E1                     	ds	5
   772  0000E6                     ___fttol@sign1:
   773                           	opt stack 0
   774                           
   775                           ; 1 bytes @ 0x2C
   776  0000E6                     	ds	1
   777  0000E7                     ___fttol@lval:
   778                           	opt stack 0
   779                           
   780                           ; 4 bytes @ 0x2D
   781  0000E7                     	ds	4
   782  0000EB                     ___fttol@exp1:
   783                           	opt stack 0
   784                           
   785                           ; 1 bytes @ 0x31
   786  0000EB                     	ds	1
   787  0000EC                     ??_main:
   788                           
   789                           ; 1 bytes @ 0x32
   790  0000EC                     	ds	1
   791  0000ED                     _main$1649:
   792                           	opt stack 0
   793                           
   794                           ; 3 bytes @ 0x33
   795  0000ED                     	ds	3
   796  0000F0                     _main$1650:
   797                           	opt stack 0
   798                           
   799                           ; 3 bytes @ 0x36
   800  0000F0                     	ds	3
   801  0000F3                     _main$1651:
   802                           	opt stack 0
   803                           
   804                           ; 3 bytes @ 0x39
   805  0000F3                     	ds	3
   806  0000F6                     _main$1648:
   807                           	opt stack 0
   808                           
   809                           ; 3 bytes @ 0x3C
   810  0000F6                     	ds	3
   811                           tblptru	equ	0xFF8
   812                           tblptrh	equ	0xFF7
   813                           tblptrl	equ	0xFF6
   814                           tablat	equ	0xFF5
   815                           postinc0	equ	0xFEE
   816                           wreg	equ	0xFE8
   817                           postdec1	equ	0xFE5
   818                           fsr1l	equ	0xFE1
   819                           
   820                           	psect	cstackCOMRAM
   821  000001                     __pcstackCOMRAM:
   822                           	opt stack 0
   823  000001                     ?i2___ftpack:
   824                           	opt stack 0
   825  000001                     i2___ftpack@arg:
   826                           	opt stack 0
   827  000001                     i2___ftge@ff1:
   828                           	opt stack 0
   829                           
   830                           ; 3 bytes @ 0x0
   831  000001                     	ds	3
   832  000004                     i2___ftpack@exp:
   833                           	opt stack 0
   834  000004                     i2___ftge@ff2:
   835                           	opt stack 0
   836                           
   837                           ; 3 bytes @ 0x3
   838  000004                     	ds	1
   839  000005                     i2___ftpack@sign:
   840                           	opt stack 0
   841                           
   842                           ; 1 bytes @ 0x4
   843  000005                     	ds	1
   844  000006                     ??i2___ftpack:
   845                           
   846                           ; 1 bytes @ 0x5
   847  000006                     	ds	1
   848  000007                     ??i2___ftge:
   849                           
   850                           ; 1 bytes @ 0x6
   851  000007                     	ds	2
   852  000009                     ?___lbtoft:
   853                           	opt stack 0
   854  000009                     ?i2___ftdiv:
   855                           	opt stack 0
   856  000009                     i2___ftdiv@f1:
   857                           	opt stack 0
   858                           
   859                           ; 3 bytes @ 0x8
   860  000009                     	ds	1
   861  00000A                     
   862                           ; 1 bytes @ 0x9
   863  00000A                     	ds	2
   864  00000C                     ___lbtoft@c:
   865                           	opt stack 0
   866  00000C                     i2___ftdiv@f2:
   867                           	opt stack 0
   868                           
   869                           ; 3 bytes @ 0xB
   870  00000C                     	ds	1
   871  00000D                     ?i2___ftmul:
   872                           	opt stack 0
   873  00000D                     i2___ftmul@f1:
   874                           	opt stack 0
   875                           
   876                           ; 3 bytes @ 0xC
   877  00000D                     	ds	2
   878  00000F                     ??i2___ftdiv:
   879                           
   880                           ; 1 bytes @ 0xE
   881  00000F                     	ds	1
   882  000010                     i2___ftmul@f2:
   883                           	opt stack 0
   884                           
   885                           ; 3 bytes @ 0xF
   886  000010                     	ds	2
   887  000012                     i2___ftdiv@cntr:
   888                           	opt stack 0
   889                           
   890                           ; 1 bytes @ 0x11
   891  000012                     	ds	1
   892  000013                     ??i2___ftmul:
   893  000013                     i2___ftdiv@f3:
   894                           	opt stack 0
   895                           
   896                           ; 3 bytes @ 0x12
   897  000013                     	ds	3
   898  000016                     i2___ftdiv@exp:
   899                           	opt stack 0
   900  000016                     i2___ftmul@exp:
   901                           	opt stack 0
   902                           
   903                           ; 1 bytes @ 0x15
   904  000016                     	ds	1
   905  000017                     i2___ftdiv@sign:
   906                           	opt stack 0
   907  000017                     i2___ftmul@f3_as_product:
   908                           	opt stack 0
   909                           
   910                           ; 3 bytes @ 0x16
   911  000017                     	ds	1
   912  000018                     ?i2___ftadd:
   913                           	opt stack 0
   914  000018                     i2___ftadd@f1:
   915                           	opt stack 0
   916                           
   917                           ; 3 bytes @ 0x17
   918  000018                     	ds	2
   919  00001A                     i2___ftmul@cntr:
   920                           	opt stack 0
   921                           
   922                           ; 1 bytes @ 0x19
   923  00001A                     	ds	1
   924  00001B                     i2___ftmul@sign:
   925                           	opt stack 0
   926  00001B                     i2___ftadd@f2:
   927                           	opt stack 0
   928                           
   929                           ; 3 bytes @ 0x1A
   930  00001B                     	ds	3
   931  00001E                     ??i2___ftadd:
   932                           
   933                           ; 1 bytes @ 0x1D
   934  00001E                     	ds	3
   935  000021                     i2___ftadd@sign:
   936                           	opt stack 0
   937                           
   938                           ; 1 bytes @ 0x20
   939  000021                     	ds	1
   940  000022                     i2___ftadd@exp2:
   941                           	opt stack 0
   942                           
   943                           ; 1 bytes @ 0x21
   944  000022                     	ds	1
   945  000023                     i2___ftadd@exp1:
   946                           	opt stack 0
   947                           
   948                           ; 1 bytes @ 0x22
   949  000023                     	ds	1
   950  000024                     ?i2___fttol:
   951                           	opt stack 0
   952  000024                     i2___fttol@f1:
   953                           	opt stack 0
   954                           
   955                           ; 3 bytes @ 0x23
   956  000024                     	ds	4
   957  000028                     ??i2___fttol:
   958                           
   959                           ; 1 bytes @ 0x27
   960  000028                     	ds	5
   961  00002D                     i2___fttol@sign1:
   962                           	opt stack 0
   963                           
   964                           ; 1 bytes @ 0x2C
   965  00002D                     	ds	1
   966  00002E                     i2___fttol@lval:
   967                           	opt stack 0
   968                           
   969                           ; 4 bytes @ 0x2D
   970  00002E                     	ds	4
   971  000032                     i2___fttol@exp1:
   972                           	opt stack 0
   973                           
   974                           ; 1 bytes @ 0x31
   975  000032                     	ds	1
   976  000033                     ??_ISR:
   977  000033                     
   978                           ; 1 bytes @ 0x32
   979  000033                     	ds	16
   980                           tblptru	equ	0xFF8
   981                           tblptrh	equ	0xFF7
   982                           tblptrl	equ	0xFF6
   983                           tablat	equ	0xFF5
   984                           postinc0	equ	0xFEE
   985                           wreg	equ	0xFE8
   986                           postdec1	equ	0xFE5
   987                           fsr1l	equ	0xFE1
   988                           
   989 ;;
   990 ;;Main: autosize = 0, tempsize = 1, incstack = 0, save=0
   991 ;;
   992 ;; *************** function _main *****************
   993 ;; Defined at:
   994 ;;		line 25 in file "newmain_2431.c"
   995 ;; Parameters:    Size  Location     Type
   996 ;;		None
   997 ;; Auto vars:     Size  Location     Type
   998 ;;		None
   999 ;; Return value:  Size  Location     Type
  1000 ;;                  1    wreg      void 
  1001 ;; Registers used:
  1002 ;;		wreg, status,2, status,0, cstack
  1003 ;; Tracked objects:
  1004 ;;		On entry : 0/0
  1005 ;;		On exit  : 0/0
  1006 ;;		Unchanged: 0/0
  1007 ;; Data sizes:     COMRAM   BANK0   BANK1   BANK2
  1008 ;;      Params:         0       0       0       0
  1009 ;;      Locals:         0      12       0       0
  1010 ;;      Temps:          0       1       0       0
  1011 ;;      Totals:         0      13       0       0
  1012 ;;Total ram usage:       13 bytes
  1013 ;; Hardware stack levels required when called:    7
  1014 ;; This function calls:
  1015 ;;		_DC_Bus_Volt_ADC
  1016 ;;		_IO_Initiation
  1017 ;;		_RS485_Data
  1018 ;;		_TIMER0_INITIATE
  1019 ;;		_VFD_CURRENT_ADC
  1020 ;;		_VFD_Current_INITIATE
  1021 ;;		___ftadd
  1022 ;;		___ftdiv
  1023 ;;		___ftge
  1024 ;;		___ftmul
  1025 ;;		___fttol
  1026 ;;		___lwtoft
  1027 ;;		_usart_init
  1028 ;;		_usart_str_1
  1029 ;; This function is called by:
  1030 ;;		Startup code after reset
  1031 ;; This function uses a non-reentrant model
  1032 ;;
  1033                           
  1034                           	psect	text0
  1035  0004CE                     __ptext0:
  1036                           	opt stack 0
  1037  0004CE                     _main:
  1038                           	opt stack 24
  1039                           
  1040                           ;newmain_2431.c: 27: OSCCON = 0b01110011;
  1041                           
  1042                           ;incstack = 0
  1043  0004CE  0E73               	movlw	115
  1044  0004D0  6ED3               	movwf	4051,c	;volatile
  1045                           
  1046                           ;newmain_2431.c: 28: TIMER0_INITIATE();
  1047  0004D2  ECA3  F00E         	call	_TIMER0_INITIATE	;wreg free
  1048                           
  1049                           ;newmain_2431.c: 29: IO_Initiation();
  1050  0004D6  EC96  F00E         	call	_IO_Initiation	;wreg free
  1051                           
  1052                           ;newmain_2431.c: 30: usart_init();
  1053  0004DA  EC7C  F00E         	call	_usart_init	;wreg free
  1054                           
  1055                           ;newmain_2431.c: 31: VFD_Current_INITIATE();
  1056  0004DE  EC89  F00E         	call	_VFD_Current_INITIATE	;wreg free
  1057                           
  1058                           ;newmain_2431.c: 33: TRISB0 = 0; TRISB1 = 0; TRISB2 = 0; TRISB3 = 0; TRISB4 = 0; TRISB5 
      +                          = 0;
  1059  0004E2  9093               	bcf	3987,0,c	;volatile
  1060  0004E4  9293               	bcf	3987,1,c	;volatile
  1061  0004E6  9493               	bcf	3987,2,c	;volatile
  1062  0004E8  9693               	bcf	3987,3,c	;volatile
  1063  0004EA  9893               	bcf	3987,4,c	;volatile
  1064  0004EC  9A93               	bcf	3987,5,c	;volatile
  1065                           
  1066                           ;newmain_2431.c: 34: RB0 = 0; RB1 = 0; RB2 = 0; RB3 = 0; RB4 = 0; RB5 = 0;
  1067  0004EE  9081               	bcf	3969,0,c	;volatile
  1068  0004F0  9281               	bcf	3969,1,c	;volatile
  1069  0004F2  9481               	bcf	3969,2,c	;volatile
  1070  0004F4  9681               	bcf	3969,3,c	;volatile
  1071  0004F6  9881               	bcf	3969,4,c	;volatile
  1072  0004F8  9A81               	bcf	3969,5,c	;volatile
  1073                           
  1074                           ;newmain_2431.c: 35: TRISC4 = 0;
  1075  0004FA  9894               	bcf	3988,4,c	;volatile
  1076                           
  1077                           ;newmain_2431.c: 36: TRISC5 = 0;
  1078  0004FC  9A94               	bcf	3988,5,c	;volatile
  1079                           
  1080                           ;newmain_2431.c: 37: RC4 = 0;
  1081  0004FE  9882               	bcf	3970,4,c	;volatile
  1082                           
  1083                           ;newmain_2431.c: 38: RC5 = 0;
  1084  000500  9A82               	bcf	3970,5,c	;volatile
  1085                           
  1086                           ;newmain_2431.c: 39: TRISC2 = 0;
  1087  000502  9494               	bcf	3988,2,c	;volatile
  1088                           
  1089                           ;newmain_2431.c: 40: RC2 = 0;
  1090  000504  9482               	bcf	3970,2,c	;volatile
  1091                           
  1092                           ;newmain_2431.c: 41: A = 8000000 / 4;
  1093  000506  0E24               	movlw	36
  1094  000508  0100               	movlb	0	; () banked
  1095  00050A  6FF9               	movwf	_A& (0+255),b
  1096  00050C  0EF4               	movlw	244
  1097  00050E  0100               	movlb	0	; () banked
  1098  000510  6FFA               	movwf	(_A+1)& (0+255),b
  1099  000512  0E49               	movlw	73
  1100  000514  0100               	movlb	0	; () banked
  1101  000516  6FFB               	movwf	(_A+2)& (0+255),b
  1102                           
  1103                           ;newmain_2431.c: 42: B_1 = 4 * 99;
  1104  000518  0E00               	movlw	0
  1105  00051A  0100               	movlb	0	; () banked
  1106  00051C  6FFC               	movwf	_B_1& (0+255),b
  1107  00051E  0EC6               	movlw	198
  1108  000520  0100               	movlb	0	; () banked
  1109  000522  6FFD               	movwf	(_B_1+1)& (0+255),b
  1110  000524  0E43               	movlw	67
  1111  000526  0100               	movlb	0	; () banked
  1112  000528  6FFE               	movwf	(_B_1+2)& (0+255),b
  1113                           
  1114                           ; BSR set to: 0
  1115                           ;newmain_2431.c: 44: GIE = 1;
  1116  00052A  8EF2               	bsf	intcon,7,c	;volatile
  1117                           
  1118                           ; BSR set to: 0
  1119                           ;newmain_2431.c: 45: PEIE =1;
  1120  00052C  8CF2               	bsf	intcon,6,c	;volatile
  1121                           
  1122                           ; BSR set to: 0
  1123                           ;newmain_2431.c: 46: PTIF = 0;
  1124  00052E  98A4               	bcf	4004,4,c	;volatile
  1125                           
  1126                           ; BSR set to: 0
  1127                           ;newmain_2431.c: 48: RC2 = 1;
  1128  000530  8482               	bsf	3970,2,c	;volatile
  1129                           
  1130                           ; BSR set to: 0
  1131                           ;newmain_2431.c: 49: _delay((unsigned long)((90)*(8000000/4000.0)));
  1132  000532  0EEA               	movlw	234
  1133  000534  0100               	movlb	0	; () banked
  1134  000536  6FEC               	movwf	??_main& (0+255),b
  1135  000538  0EC3               	movlw	195
  1136  00053A                     u4237:
  1137  00053A  2EE8               	decfsz	wreg,f,c
  1138  00053C  D7FE               	goto	u4237
  1139  00053E  2FEC               	decfsz	??_main& (0+255),f,b
  1140  000540  D7FC               	goto	u4237
  1141  000542  F000               	nop	
  1142                           
  1143                           ;newmain_2431.c: 50: RC2 = 0;
  1144  000544  9482               	bcf	3970,2,c	;volatile
  1145  000546                     l3940:
  1146                           
  1147                           ;newmain_2431.c: 53: {
  1148                           ;newmain_2431.c: 54: if(Flag == 1)
  1149  000546  0100               	movlb	0	; () banked
  1150  000548  05B9               	decf	_Flag& (0+255),w,b
  1151  00054A  A4D8               	btfss	status,2,c
  1152  00054C  D003               	goto	l3944
  1153                           
  1154                           ; BSR set to: 0
  1155                           ;newmain_2431.c: 55: {
  1156                           ;newmain_2431.c: 56: Flag = 0;
  1157  00054E  0E00               	movlw	0
  1158  000550  0100               	movlb	0	; () banked
  1159  000552  6FB9               	movwf	_Flag& (0+255),b
  1160  000554                     l3944:
  1161                           
  1162                           ; BSR set to: 0
  1163                           ;newmain_2431.c: 59: }
  1164                           ;newmain_2431.c: 60: if(ADC_Flag == 1)
  1165  000554  0100               	movlb	0	; () banked
  1166  000556  05B6               	decf	_ADC_Flag& (0+255),w,b
  1167  000558  A4D8               	btfss	status,2,c
  1168  00055A  D0DB               	goto	l3962
  1169                           
  1170                           ; BSR set to: 0
  1171                           ;newmain_2431.c: 61: {
  1172                           ;newmain_2431.c: 62: ADC_Flag = 0;
  1173  00055C  0E00               	movlw	0
  1174  00055E  0100               	movlb	0	; () banked
  1175  000560  6FB6               	movwf	_ADC_Flag& (0+255),b
  1176                           
  1177                           ;newmain_2431.c: 64: R_V_Max = 0;
  1178  000562  0E00               	movlw	0
  1179  000564  0100               	movlb	0	; () banked
  1180  000566  6F84               	movwf	_R_V_Max& (0+255),b
  1181  000568  0E00               	movlw	0
  1182  00056A  0100               	movlb	0	; () banked
  1183  00056C  6F85               	movwf	(_R_V_Max+1)& (0+255),b
  1184  00056E  0E00               	movlw	0
  1185  000570  0100               	movlb	0	; () banked
  1186  000572  6F86               	movwf	(_R_V_Max+2)& (0+255),b
  1187                           
  1188                           ;newmain_2431.c: 65: R_C_Max = 0;
  1189  000574  0E00               	movlw	0
  1190  000576  0100               	movlb	0	; () banked
  1191  000578  6F78               	movwf	_R_C_Max& (0+255),b
  1192  00057A  0E00               	movlw	0
  1193  00057C  0100               	movlb	0	; () banked
  1194  00057E  6F79               	movwf	(_R_C_Max+1)& (0+255),b
  1195  000580  0E00               	movlw	0
  1196  000582  0100               	movlb	0	; () banked
  1197  000584  6F7A               	movwf	(_R_C_Max+2)& (0+255),b
  1198                           
  1199                           ;newmain_2431.c: 66: for(i=0; i<70; i++)
  1200  000586  0E00               	movlw	0
  1201  000588  0100               	movlb	0	; () banked
  1202  00058A  6F8D               	movwf	_i& (0+255),b
  1203  00058C  0E00               	movlw	0
  1204  00058E  0100               	movlb	0	; () banked
  1205  000590  6F8E               	movwf	(_i+1)& (0+255),b
  1206  000592  0E00               	movlw	0
  1207  000594  0100               	movlb	0	; () banked
  1208  000596  6F8F               	movwf	(_i+2)& (0+255),b
  1209                           
  1210                           ; BSR set to: 0
  1211  000598  C08D  F0BA         	movff	_i,___ftge@ff1
  1212  00059C  C08E  F0BB         	movff	_i+1,___ftge@ff1+1
  1213  0005A0  C08F  F0BC         	movff	_i+2,___ftge@ff1+2
  1214  0005A4  0E00               	movlw	0
  1215  0005A6  0100               	movlb	0	; () banked
  1216  0005A8  6FBD               	movwf	___ftge@ff2& (0+255),b
  1217  0005AA  0E8C               	movlw	140
  1218  0005AC  0100               	movlb	0	; () banked
  1219  0005AE  6FBE               	movwf	(___ftge@ff2+1)& (0+255),b
  1220  0005B0  0E42               	movlw	66
  1221  0005B2  0100               	movlb	0	; () banked
  1222  0005B4  6FBF               	movwf	(___ftge@ff2+2)& (0+255),b
  1223  0005B6  ECF4  F00B         	call	___ftge	;wreg free
  1224  0005BA  0100               	movlb	0	; () banked
  1225  0005BC  B0D8               	btfsc	status,0,c
  1226  0005BE  D073               	goto	l199
  1227                           
  1228                           ; BSR set to: 0
  1229                           ;newmain_2431.c: 67: {
  1230                           ;newmain_2431.c: 68: R_V = DC_Bus_Volt_ADC();
  1231                           
  1232                           ; BSR set to: 0
  1233                           
  1234                           ; BSR set to: 0
  1235  0005C0  ECF6  F00D         	call	_DC_Bus_Volt_ADC	;wreg free
  1236  0005C4  C0BA  F0C2         	movff	?_DC_Bus_Volt_ADC,___lwtoft@c
  1237  0005C8  C0BB  F0C3         	movff	?_DC_Bus_Volt_ADC+1,___lwtoft@c+1
  1238  0005CC  EC24  F00E         	call	___lwtoft	;wreg free
  1239  0005D0  C0C2  F081         	movff	?___lwtoft,_R_V
  1240  0005D4  C0C3  F082         	movff	?___lwtoft+1,_R_V+1
  1241  0005D8  C0C4  F083         	movff	?___lwtoft+2,_R_V+2
  1242                           
  1243                           ;newmain_2431.c: 69: R_C = VFD_CURRENT_ADC();
  1244  0005DC  ECDE  F00D         	call	_VFD_CURRENT_ADC	;wreg free
  1245  0005E0  C0BA  F0C2         	movff	?_VFD_CURRENT_ADC,___lwtoft@c
  1246  0005E4  C0BB  F0C3         	movff	?_VFD_CURRENT_ADC+1,___lwtoft@c+1
  1247  0005E8  EC24  F00E         	call	___lwtoft	;wreg free
  1248  0005EC  C0C2  F075         	movff	?___lwtoft,_R_C
  1249  0005F0  C0C3  F076         	movff	?___lwtoft+1,_R_C+1
  1250  0005F4  C0C4  F077         	movff	?___lwtoft+2,_R_C+2
  1251                           
  1252                           ;newmain_2431.c: 70: if(R_V_Max < R_V)
  1253  0005F8  C084  F0BA         	movff	_R_V_Max,___ftge@ff1
  1254  0005FC  C085  F0BB         	movff	_R_V_Max+1,___ftge@ff1+1
  1255  000600  C086  F0BC         	movff	_R_V_Max+2,___ftge@ff1+2
  1256  000604  C081  F0BD         	movff	_R_V,___ftge@ff2
  1257  000608  C082  F0BE         	movff	_R_V+1,___ftge@ff2+1
  1258  00060C  C083  F0BF         	movff	_R_V+2,___ftge@ff2+2
  1259  000610  ECF4  F00B         	call	___ftge	;wreg free
  1260  000614  0100               	movlb	0	; () banked
  1261  000616  B0D8               	btfsc	status,0,c
  1262  000618  D006               	goto	l3956
  1263                           
  1264                           ; BSR set to: 0
  1265                           ;newmain_2431.c: 71: {
  1266                           ;newmain_2431.c: 72: R_V_Max = R_V;
  1267  00061A  C081  F084         	movff	_R_V,_R_V_Max
  1268  00061E  C082  F085         	movff	_R_V+1,_R_V_Max+1
  1269  000622  C083  F086         	movff	_R_V+2,_R_V_Max+2
  1270  000626                     l3956:
  1271                           
  1272                           ; BSR set to: 0
  1273                           ;newmain_2431.c: 73: }
  1274                           ;newmain_2431.c: 76: if(R_C_Max < R_C)
  1275  000626  C078  F0BA         	movff	_R_C_Max,___ftge@ff1
  1276  00062A  C079  F0BB         	movff	_R_C_Max+1,___ftge@ff1+1
  1277  00062E  C07A  F0BC         	movff	_R_C_Max+2,___ftge@ff1+2
  1278  000632  C075  F0BD         	movff	_R_C,___ftge@ff2
  1279  000636  C076  F0BE         	movff	_R_C+1,___ftge@ff2+1
  1280  00063A  C077  F0BF         	movff	_R_C+2,___ftge@ff2+2
  1281  00063E  ECF4  F00B         	call	___ftge	;wreg free
  1282  000642  0100               	movlb	0	; () banked
  1283  000644  B0D8               	btfsc	status,0,c
  1284  000646  D006               	goto	l3960
  1285                           
  1286                           ; BSR set to: 0
  1287                           ;newmain_2431.c: 77: {
  1288                           ;newmain_2431.c: 78: R_C_Max = R_C;
  1289  000648  C075  F078         	movff	_R_C,_R_C_Max
  1290  00064C  C076  F079         	movff	_R_C+1,_R_C_Max+1
  1291  000650  C077  F07A         	movff	_R_C+2,_R_C_Max+2
  1292  000654                     l3960:
  1293                           
  1294                           ; BSR set to: 0
  1295  000654  C08D  F0C2         	movff	_i,___ftadd@f1
  1296  000658  C08E  F0C3         	movff	_i+1,___ftadd@f1+1
  1297  00065C  C08F  F0C4         	movff	_i+2,___ftadd@f1+2
  1298  000660  0E00               	movlw	0
  1299  000662  0100               	movlb	0	; () banked
  1300  000664  6FC5               	movwf	___ftadd@f2& (0+255),b
  1301  000666  0E80               	movlw	128
  1302  000668  0100               	movlb	0	; () banked
  1303  00066A  6FC6               	movwf	(___ftadd@f2+1)& (0+255),b
  1304  00066C  0E3F               	movlw	63
  1305  00066E  0100               	movlb	0	; () banked
  1306  000670  6FC7               	movwf	(___ftadd@f2+2)& (0+255),b
  1307  000672  ECF9  F004         	call	___ftadd	;wreg free
  1308  000676  C0C2  F08D         	movff	?___ftadd,_i
  1309  00067A  C0C3  F08E         	movff	?___ftadd+1,_i+1
  1310  00067E  C0C4  F08F         	movff	?___ftadd+2,_i+2
  1311  000682  C08D  F0BA         	movff	_i,___ftge@ff1
  1312  000686  C08E  F0BB         	movff	_i+1,___ftge@ff1+1
  1313  00068A  C08F  F0BC         	movff	_i+2,___ftge@ff1+2
  1314  00068E  0E00               	movlw	0
  1315  000690  0100               	movlb	0	; () banked
  1316  000692  6FBD               	movwf	___ftge@ff2& (0+255),b
  1317  000694  0E8C               	movlw	140
  1318  000696  0100               	movlb	0	; () banked
  1319  000698  6FBE               	movwf	(___ftge@ff2+1)& (0+255),b
  1320  00069A  0E42               	movlw	66
  1321  00069C  0100               	movlb	0	; () banked
  1322  00069E  6FBF               	movwf	(___ftge@ff2+2)& (0+255),b
  1323  0006A0  ECF4  F00B         	call	___ftge	;wreg free
  1324  0006A4  D78A               	goto	L1
  1325  0006A6                     l199:
  1326                           
  1327                           ; BSR set to: 0
  1328                           ;newmain_2431.c: 79: }
  1329                           ;newmain_2431.c: 80: }
  1330                           ;newmain_2431.c: 81: R_V_Arr[5] = R_V_Arr[4];
  1331  0006A6  C06C  F06F         	movff	_R_V_Arr+12,_R_V_Arr+15
  1332  0006AA  C06D  F070         	movff	_R_V_Arr+13,_R_V_Arr+16
  1333  0006AE  C06E  F071         	movff	_R_V_Arr+14,_R_V_Arr+17
  1334                           
  1335                           ;newmain_2431.c: 82: R_V_Arr[4] = R_V_Arr[3];
  1336  0006B2  C069  F06C         	movff	_R_V_Arr+9,_R_V_Arr+12
  1337  0006B6  C06A  F06D         	movff	_R_V_Arr+10,_R_V_Arr+13
  1338  0006BA  C06B  F06E         	movff	_R_V_Arr+11,_R_V_Arr+14
  1339                           
  1340                           ;newmain_2431.c: 83: R_V_Arr[3] = R_V_Arr[2];
  1341  0006BE  C066  F069         	movff	_R_V_Arr+6,_R_V_Arr+9
  1342  0006C2  C067  F06A         	movff	_R_V_Arr+7,_R_V_Arr+10
  1343  0006C6  C068  F06B         	movff	_R_V_Arr+8,_R_V_Arr+11
  1344                           
  1345                           ;newmain_2431.c: 84: R_V_Arr[2] = R_V_Arr[1];
  1346  0006CA  C063  F066         	movff	_R_V_Arr+3,_R_V_Arr+6
  1347  0006CE  C064  F067         	movff	_R_V_Arr+4,_R_V_Arr+7
  1348  0006D2  C065  F068         	movff	_R_V_Arr+5,_R_V_Arr+8
  1349                           
  1350                           ;newmain_2431.c: 85: R_V_Arr[1] = R_V_Arr[0];
  1351  0006D6  C060  F063         	movff	_R_V_Arr,_R_V_Arr+3
  1352  0006DA  C061  F064         	movff	_R_V_Arr+1,_R_V_Arr+4
  1353  0006DE  C062  F065         	movff	_R_V_Arr+2,_R_V_Arr+5
  1354                           
  1355                           ;newmain_2431.c: 86: R_V_Arr[0] = R_V_Max;
  1356  0006E2  C084  F060         	movff	_R_V_Max,_R_V_Arr
  1357  0006E6  C085  F061         	movff	_R_V_Max+1,_R_V_Arr+1
  1358  0006EA  C086  F062         	movff	_R_V_Max+2,_R_V_Arr+2
  1359                           
  1360                           ;newmain_2431.c: 91: R_C_Arr[2] = R_C_Arr[1];
  1361  0006EE  C103  F106         	movff	_R_C_Arr+3,_R_C_Arr+6
  1362  0006F2  C104  F107         	movff	_R_C_Arr+4,_R_C_Arr+7
  1363  0006F6  C105  F108         	movff	_R_C_Arr+5,_R_C_Arr+8
  1364                           
  1365                           ;newmain_2431.c: 92: R_C_Arr[1] = R_C_Arr[0];
  1366  0006FA  C100  F103         	movff	_R_C_Arr,_R_C_Arr+3
  1367  0006FE  C101  F104         	movff	_R_C_Arr+1,_R_C_Arr+4
  1368  000702  C102  F105         	movff	_R_C_Arr+2,_R_C_Arr+5
  1369                           
  1370                           ;newmain_2431.c: 93: R_C_Arr[0] = R_C_Max;
  1371  000706  C078  F100         	movff	_R_C_Max,_R_C_Arr
  1372  00070A  C079  F101         	movff	_R_C_Max+1,_R_C_Arr+1
  1373  00070E  C07A  F102         	movff	_R_C_Max+2,_R_C_Arr+2
  1374  000712                     l3962:
  1375                           
  1376                           ; BSR set to: 0
  1377                           ;newmain_2431.c: 94: }
  1378                           ;newmain_2431.c: 95: R_Voltage = ( ( R_V_Arr[0] + R_V_Arr[1] + R_V_Arr[2] + R_V_Arr[3] +
      +                           R_V_Arr[4] + R_V_Arr[5]) / 6);
  1379  000712  C066  F0C5         	movff	_R_V_Arr+6,___ftadd@f2
  1380  000716  C067  F0C6         	movff	_R_V_Arr+7,___ftadd@f2+1
  1381  00071A  C068  F0C7         	movff	_R_V_Arr+8,___ftadd@f2+2
  1382  00071E  C063  F0C2         	movff	_R_V_Arr+3,___ftadd@f1
  1383  000722  C064  F0C3         	movff	_R_V_Arr+4,___ftadd@f1+1
  1384  000726  C065  F0C4         	movff	_R_V_Arr+5,___ftadd@f1+2
  1385  00072A  ECF9  F004         	call	___ftadd	;wreg free
  1386  00072E  C0C2  F0F6         	movff	?___ftadd,_main$1648
  1387  000732  C0C3  F0F7         	movff	?___ftadd+1,_main$1648+1
  1388  000736  C0C4  F0F8         	movff	?___ftadd+2,_main$1648+2
  1389                           
  1390                           ;newmain_2431.c: 94: }
  1391                           ;newmain_2431.c: 95: R_Voltage = ( ( R_V_Arr[0] + R_V_Arr[1] + R_V_Arr[2] + R_V_Arr[3] +
      +                           R_V_Arr[4] + R_V_Arr[5]) / 6);
  1392  00073A  C069  F0C5         	movff	_R_V_Arr+9,___ftadd@f2
  1393  00073E  C06A  F0C6         	movff	_R_V_Arr+10,___ftadd@f2+1
  1394  000742  C06B  F0C7         	movff	_R_V_Arr+11,___ftadd@f2+2
  1395  000746  C0F6  F0C2         	movff	_main$1648,___ftadd@f1
  1396  00074A  C0F7  F0C3         	movff	_main$1648+1,___ftadd@f1+1
  1397  00074E  C0F8  F0C4         	movff	_main$1648+2,___ftadd@f1+2
  1398  000752  ECF9  F004         	call	___ftadd	;wreg free
  1399  000756  C0C2  F0ED         	movff	?___ftadd,_main$1649
  1400  00075A  C0C3  F0EE         	movff	?___ftadd+1,_main$1649+1
  1401  00075E  C0C4  F0EF         	movff	?___ftadd+2,_main$1649+2
  1402                           
  1403                           ;newmain_2431.c: 94: }
  1404                           ;newmain_2431.c: 95: R_Voltage = ( ( R_V_Arr[0] + R_V_Arr[1] + R_V_Arr[2] + R_V_Arr[3] +
      +                           R_V_Arr[4] + R_V_Arr[5]) / 6);
  1405  000762  C06C  F0C5         	movff	_R_V_Arr+12,___ftadd@f2
  1406  000766  C06D  F0C6         	movff	_R_V_Arr+13,___ftadd@f2+1
  1407  00076A  C06E  F0C7         	movff	_R_V_Arr+14,___ftadd@f2+2
  1408  00076E  C0ED  F0C2         	movff	_main$1649,___ftadd@f1
  1409  000772  C0EE  F0C3         	movff	_main$1649+1,___ftadd@f1+1
  1410  000776  C0EF  F0C4         	movff	_main$1649+2,___ftadd@f1+2
  1411  00077A  ECF9  F004         	call	___ftadd	;wreg free
  1412  00077E  C0C2  F0F0         	movff	?___ftadd,_main$1650
  1413  000782  C0C3  F0F1         	movff	?___ftadd+1,_main$1650+1
  1414  000786  C0C4  F0F2         	movff	?___ftadd+2,_main$1650+2
  1415                           
  1416                           ;newmain_2431.c: 94: }
  1417                           ;newmain_2431.c: 95: R_Voltage = ( ( R_V_Arr[0] + R_V_Arr[1] + R_V_Arr[2] + R_V_Arr[3] +
      +                           R_V_Arr[4] + R_V_Arr[5]) / 6);
  1418  00078A  C06F  F0C5         	movff	_R_V_Arr+15,___ftadd@f2
  1419  00078E  C070  F0C6         	movff	_R_V_Arr+16,___ftadd@f2+1
  1420  000792  C071  F0C7         	movff	_R_V_Arr+17,___ftadd@f2+2
  1421  000796  C0F0  F0C2         	movff	_main$1650,___ftadd@f1
  1422  00079A  C0F1  F0C3         	movff	_main$1650+1,___ftadd@f1+1
  1423  00079E  C0F2  F0C4         	movff	_main$1650+2,___ftadd@f1+2
  1424  0007A2  ECF9  F004         	call	___ftadd	;wreg free
  1425  0007A6  C0C2  F0F3         	movff	?___ftadd,_main$1651
  1426  0007AA  C0C3  F0F4         	movff	?___ftadd+1,_main$1651+1
  1427  0007AE  C0C4  F0F5         	movff	?___ftadd+2,_main$1651+2
  1428                           
  1429                           ;newmain_2431.c: 94: }
  1430                           ;newmain_2431.c: 95: R_Voltage = ( ( R_V_Arr[0] + R_V_Arr[1] + R_V_Arr[2] + R_V_Arr[3] +
      +                           R_V_Arr[4] + R_V_Arr[5]) / 6);
  1431  0007B2  C060  F0C5         	movff	_R_V_Arr,___ftadd@f2
  1432  0007B6  C061  F0C6         	movff	_R_V_Arr+1,___ftadd@f2+1
  1433  0007BA  C062  F0C7         	movff	_R_V_Arr+2,___ftadd@f2+2
  1434  0007BE  C0F3  F0C2         	movff	_main$1651,___ftadd@f1
  1435  0007C2  C0F4  F0C3         	movff	_main$1651+1,___ftadd@f1+1
  1436  0007C6  C0F5  F0C4         	movff	_main$1651+2,___ftadd@f1+2
  1437  0007CA  ECF9  F004         	call	___ftadd	;wreg free
  1438  0007CE  C0C2  F0CE         	movff	?___ftadd,___ftdiv@f1
  1439  0007D2  C0C3  F0CF         	movff	?___ftadd+1,___ftdiv@f1+1
  1440  0007D6  C0C4  F0D0         	movff	?___ftadd+2,___ftdiv@f1+2
  1441  0007DA  0E00               	movlw	0
  1442  0007DC  0100               	movlb	0	; () banked
  1443  0007DE  6FD1               	movwf	___ftdiv@f2& (0+255),b
  1444  0007E0  0EC0               	movlw	192
  1445  0007E2  0100               	movlb	0	; () banked
  1446  0007E4  6FD2               	movwf	(___ftdiv@f2+1)& (0+255),b
  1447  0007E6  0E40               	movlw	64
  1448  0007E8  0100               	movlb	0	; () banked
  1449  0007EA  6FD3               	movwf	(___ftdiv@f2+2)& (0+255),b
  1450  0007EC  ECB2  F007         	call	___ftdiv	;wreg free
  1451  0007F0  C0CE  F08A         	movff	?___ftdiv,_R_Voltage
  1452  0007F4  C0CF  F08B         	movff	?___ftdiv+1,_R_Voltage+1
  1453  0007F8  C0D0  F08C         	movff	?___ftdiv+2,_R_Voltage+2
  1454                           
  1455                           ;newmain_2431.c: 96: R_Volt_1 = (R_Voltage * (0.02132));
  1456  0007FC  C08A  F0CE         	movff	_R_Voltage,___ftmul@f1
  1457  000800  C08B  F0CF         	movff	_R_Voltage+1,___ftmul@f1+1
  1458  000804  C08C  F0D0         	movff	_R_Voltage+2,___ftmul@f1+2
  1459  000808  0EA7               	movlw	167
  1460  00080A  0100               	movlb	0	; () banked
  1461  00080C  6FD1               	movwf	___ftmul@f2& (0+255),b
  1462  00080E  0EAE               	movlw	174
  1463  000810  0100               	movlb	0	; () banked
  1464  000812  6FD2               	movwf	(___ftmul@f2+1)& (0+255),b
  1465  000814  0E3C               	movlw	60
  1466  000816  0100               	movlb	0	; () banked
  1467  000818  6FD3               	movwf	(___ftmul@f2+2)& (0+255),b
  1468  00081A  EC03  F007         	call	___ftmul	;wreg free
  1469  00081E  C0CE  F087         	movff	?___ftmul,_R_Volt_1
  1470  000822  C0CF  F088         	movff	?___ftmul+1,_R_Volt_1+1
  1471  000826  C0D0  F089         	movff	?___ftmul+2,_R_Volt_1+2
  1472                           
  1473                           ;newmain_2431.c: 98: R_Current = ( ( R_C_Arr[0] + R_C_Arr[1] + R_C_Arr[2] ) / 3 );
  1474  00082A  C106  F0C5         	movff	_R_C_Arr+6,___ftadd@f2
  1475  00082E  C107  F0C6         	movff	_R_C_Arr+7,___ftadd@f2+1
  1476  000832  C108  F0C7         	movff	_R_C_Arr+8,___ftadd@f2+2
  1477  000836  C103  F0C2         	movff	_R_C_Arr+3,___ftadd@f1
  1478  00083A  C104  F0C3         	movff	_R_C_Arr+4,___ftadd@f1+1
  1479  00083E  C105  F0C4         	movff	_R_C_Arr+5,___ftadd@f1+2
  1480  000842  ECF9  F004         	call	___ftadd	;wreg free
  1481  000846  C0C2  F0F6         	movff	?___ftadd,_main$1648
  1482  00084A  C0C3  F0F7         	movff	?___ftadd+1,_main$1648+1
  1483  00084E  C0C4  F0F8         	movff	?___ftadd+2,_main$1648+2
  1484                           
  1485                           ;newmain_2431.c: 98: R_Current = ( ( R_C_Arr[0] + R_C_Arr[1] + R_C_Arr[2] ) / 3 );
  1486  000852  C100  F0C5         	movff	_R_C_Arr,___ftadd@f2
  1487  000856  C101  F0C6         	movff	_R_C_Arr+1,___ftadd@f2+1
  1488  00085A  C102  F0C7         	movff	_R_C_Arr+2,___ftadd@f2+2
  1489  00085E  C0F6  F0C2         	movff	_main$1648,___ftadd@f1
  1490  000862  C0F7  F0C3         	movff	_main$1648+1,___ftadd@f1+1
  1491  000866  C0F8  F0C4         	movff	_main$1648+2,___ftadd@f1+2
  1492  00086A  ECF9  F004         	call	___ftadd	;wreg free
  1493  00086E  C0C2  F0CE         	movff	?___ftadd,___ftdiv@f1
  1494  000872  C0C3  F0CF         	movff	?___ftadd+1,___ftdiv@f1+1
  1495  000876  C0C4  F0D0         	movff	?___ftadd+2,___ftdiv@f1+2
  1496  00087A  0E00               	movlw	0
  1497  00087C  0100               	movlb	0	; () banked
  1498  00087E  6FD1               	movwf	___ftdiv@f2& (0+255),b
  1499  000880  0E40               	movlw	64
  1500  000882  0100               	movlb	0	; () banked
  1501  000884  6FD2               	movwf	(___ftdiv@f2+1)& (0+255),b
  1502  000886  0E40               	movlw	64
  1503  000888  0100               	movlb	0	; () banked
  1504  00088A  6FD3               	movwf	(___ftdiv@f2+2)& (0+255),b
  1505  00088C  ECB2  F007         	call	___ftdiv	;wreg free
  1506  000890  C0CE  F07B         	movff	?___ftdiv,_R_Current
  1507  000894  C0CF  F07C         	movff	?___ftdiv+1,_R_Current+1
  1508  000898  C0D0  F07D         	movff	?___ftdiv+2,_R_Current+2
  1509                           
  1510                           ;newmain_2431.c: 99: R_Current_1 = (R_Current - (16256))* 0.004386;
  1511  00089C  0E00               	movlw	0
  1512  00089E  0100               	movlb	0	; () banked
  1513  0008A0  6FC5               	movwf	___ftadd@f2& (0+255),b
  1514  0008A2  0E7E               	movlw	126
  1515  0008A4  0100               	movlb	0	; () banked
  1516  0008A6  6FC6               	movwf	(___ftadd@f2+1)& (0+255),b
  1517  0008A8  0EC6               	movlw	198
  1518  0008AA  0100               	movlb	0	; () banked
  1519  0008AC  6FC7               	movwf	(___ftadd@f2+2)& (0+255),b
  1520  0008AE  C07B  F0C2         	movff	_R_Current,___ftadd@f1
  1521  0008B2  C07C  F0C3         	movff	_R_Current+1,___ftadd@f1+1
  1522  0008B6  C07D  F0C4         	movff	_R_Current+2,___ftadd@f1+2
  1523  0008BA  ECF9  F004         	call	___ftadd	;wreg free
  1524  0008BE  C0C2  F0CE         	movff	?___ftadd,___ftmul@f1
  1525  0008C2  C0C3  F0CF         	movff	?___ftadd+1,___ftmul@f1+1
  1526  0008C6  C0C4  F0D0         	movff	?___ftadd+2,___ftmul@f1+2
  1527  0008CA  0EB8               	movlw	184
  1528  0008CC  0100               	movlb	0	; () banked
  1529  0008CE  6FD1               	movwf	___ftmul@f2& (0+255),b
  1530  0008D0  0E8F               	movlw	143
  1531  0008D2  0100               	movlb	0	; () banked
  1532  0008D4  6FD2               	movwf	(___ftmul@f2+1)& (0+255),b
  1533  0008D6  0E3B               	movlw	59
  1534  0008D8  0100               	movlb	0	; () banked
  1535  0008DA  6FD3               	movwf	(___ftmul@f2+2)& (0+255),b
  1536  0008DC  EC03  F007         	call	___ftmul	;wreg free
  1537  0008E0  C0CE  F07E         	movff	?___ftmul,_R_Current_1
  1538  0008E4  C0CF  F07F         	movff	?___ftmul+1,_R_Current_1+1
  1539  0008E8  C0D0  F080         	movff	?___ftmul+2,_R_Current_1+2
  1540                           
  1541                           ;newmain_2431.c: 102: R_Current_Data = R_Current_1 * 10;
  1542  0008EC  0E00               	movlw	0
  1543  0008EE  0100               	movlb	0	; () banked
  1544  0008F0  6FD1               	movwf	___ftmul@f2& (0+255),b
  1545  0008F2  0E20               	movlw	32
  1546  0008F4  0100               	movlb	0	; () banked
  1547  0008F6  6FD2               	movwf	(___ftmul@f2+1)& (0+255),b
  1548  0008F8  0E41               	movlw	65
  1549  0008FA  0100               	movlb	0	; () banked
  1550  0008FC  6FD3               	movwf	(___ftmul@f2+2)& (0+255),b
  1551  0008FE  C07E  F0CE         	movff	_R_Current_1,___ftmul@f1
  1552  000902  C07F  F0CF         	movff	_R_Current_1+1,___ftmul@f1+1
  1553  000906  C080  F0D0         	movff	_R_Current_1+2,___ftmul@f1+2
  1554  00090A  EC03  F007         	call	___ftmul	;wreg free
  1555  00090E  C0CE  F0DD         	movff	?___ftmul,___fttol@f1
  1556  000912  C0CF  F0DE         	movff	?___ftmul+1,___fttol@f1+1
  1557  000916  C0D0  F0DF         	movff	?___ftmul+2,___fttol@f1+2
  1558  00091A  EC58  F008         	call	___fttol	;wreg free
  1559  00091E  C0DD  F0A2         	movff	?___fttol,_R_Current_Data
  1560  000922  C0DE  F0A3         	movff	?___fttol+1,_R_Current_Data+1
  1561                           
  1562                           ;newmain_2431.c: 103: DC_Voltage_Data = R_Volt_1;
  1563  000926  C087  F0DD         	movff	_R_Volt_1,___fttol@f1
  1564  00092A  C088  F0DE         	movff	_R_Volt_1+1,___fttol@f1+1
  1565  00092E  C089  F0DF         	movff	_R_Volt_1+2,___fttol@f1+2
  1566  000932  EC58  F008         	call	___fttol	;wreg free
  1567  000936  C0DD  F094         	movff	?___fttol,_DC_Voltage_Data
  1568  00093A  C0DE  F095         	movff	?___fttol+1,_DC_Voltage_Data+1
  1569                           
  1570                           ;newmain_2431.c: 104: DC_Volt_Low = DC_Voltage_Data & 0xff;
  1571  00093E  0100               	movlb	0	; () banked
  1572  000940  5194               	movf	_DC_Voltage_Data& (0+255),w,b
  1573  000942  0100               	movlb	0	; () banked
  1574  000944  6F92               	movwf	_DC_Volt_Low& (0+255),b
  1575  000946  6B93               	clrf	(_DC_Volt_Low+1)& (0+255),b
  1576                           
  1577                           ; BSR set to: 0
  1578                           ;newmain_2431.c: 105: DC_Volt_High = DC_Voltage_Data >> 8;
  1579  000948  0100               	movlb	0	; () banked
  1580  00094A  5195               	movf	(_DC_Voltage_Data+1)& (0+255),w,b
  1581  00094C  0100               	movlb	0	; () banked
  1582  00094E  6F90               	movwf	_DC_Volt_High& (0+255),b
  1583  000950  6B91               	clrf	(_DC_Volt_High+1)& (0+255),b
  1584                           
  1585                           ; BSR set to: 0
  1586                           ;newmain_2431.c: 107: if(Data_Send_Flag)
  1587  000952  0100               	movlb	0	; () banked
  1588  000954  5198               	movf	_Data_Send_Flag& (0+255),w,b
  1589  000956  0100               	movlb	0	; () banked
  1590  000958  1199               	iorwf	(_Data_Send_Flag+1)& (0+255),w,b
  1591  00095A  B4D8               	btfsc	status,2,c
  1592  00095C  D5F4               	goto	l3940
  1593                           
  1594                           ; BSR set to: 0
  1595                           ;newmain_2431.c: 108: {
  1596                           ;newmain_2431.c: 109: Data_Send_Flag = 0;
  1597  00095E  0E00               	movlw	0
  1598  000960  0100               	movlb	0	; () banked
  1599  000962  6F99               	movwf	(_Data_Send_Flag+1)& (0+255),b
  1600  000964  0E00               	movlw	0
  1601  000966  6F98               	movwf	_Data_Send_Flag& (0+255),b
  1602                           
  1603                           ; BSR set to: 0
  1604                           ;newmain_2431.c: 110: if(Data[3] == 0x30)
  1605  000968  0E30               	movlw	48
  1606  00096A  0101               	movlb	1	; () banked
  1607  00096C  1918               	xorwf	(_Data+6)& (0+255),w,b
  1608  00096E  0101               	movlb	1	; () banked
  1609  000970  1119               	iorwf	(_Data+7)& (0+255),w,b
  1610  000972  B4D8               	btfsc	status,2,c
  1611                           
  1612                           ; BSR set to: 1
  1613                           ;newmain_2431.c: 111: {
  1614                           ;newmain_2431.c: 112: RS485_Data();
  1615  000974  EC0E  F00E         	call	_RS485_Data	;wreg free
  1616                           
  1617                           ;newmain_2431.c: 113: }
  1618                           ;newmain_2431.c: 115: RC4 = 1;
  1619  000978  8882               	bsf	3970,4,c	;volatile
  1620                           
  1621                           ;newmain_2431.c: 116: _delay((unsigned long)((22)*(8000000/4000.0)));
  1622  00097A  0E3A               	movlw	58
  1623  00097C  0100               	movlb	0	; () banked
  1624  00097E  6FEC               	movwf	??_main& (0+255),b
  1625  000980  0E23               	movlw	35
  1626  000982                     u4247:
  1627  000982  2EE8               	decfsz	wreg,f,c
  1628  000984  D7FE               	goto	u4247
  1629  000986  2FEC               	decfsz	??_main& (0+255),f,b
  1630  000988  D7FC               	goto	u4247
  1631  00098A  F000               	nop	
  1632                           
  1633                           ;newmain_2431.c: 117: usart_str_1(0x20);
  1634  00098C  0E20               	movlw	32
  1635  00098E  ECAF  F00E         	call	_usart_str_1
  1636                           
  1637                           ;newmain_2431.c: 118: usart_str_1(Data[4]);
  1638  000992  0101               	movlb	1	; () banked
  1639  000994  511A               	movf	(_Data+8)& (0+255),w,b
  1640  000996  ECAF  F00E         	call	_usart_str_1
  1641                           
  1642                           ;newmain_2431.c: 119: usart_str_1(Desired_Frequency);
  1643  00099A  0100               	movlb	0	; () banked
  1644  00099C  51B7               	movf	_Desired_Frequency& (0+255),w,b
  1645  00099E  ECAF  F00E         	call	_usart_str_1
  1646                           
  1647                           ;newmain_2431.c: 120: usart_str_1(DC_Volt_Low);
  1648  0009A2  0100               	movlb	0	; () banked
  1649  0009A4  5192               	movf	_DC_Volt_Low& (0+255),w,b
  1650  0009A6  ECAF  F00E         	call	_usart_str_1
  1651                           
  1652                           ;newmain_2431.c: 121: usart_str_1(DC_Volt_High);
  1653  0009AA  0100               	movlb	0	; () banked
  1654  0009AC  5190               	movf	_DC_Volt_High& (0+255),w,b
  1655  0009AE  ECAF  F00E         	call	_usart_str_1
  1656                           
  1657                           ;newmain_2431.c: 122: usart_str_1(R_Current_Data);
  1658  0009B2  0100               	movlb	0	; () banked
  1659  0009B4  51A2               	movf	_R_Current_Data& (0+255),w,b
  1660  0009B6  ECAF  F00E         	call	_usart_str_1
  1661                           
  1662                           ;newmain_2431.c: 123: usart_str_1(Error_no);
  1663  0009BA  0100               	movlb	0	; () banked
  1664  0009BC  51B8               	movf	_Error_no& (0+255),w,b
  1665  0009BE  ECAF  F00E         	call	_usart_str_1
  1666                           
  1667                           ;newmain_2431.c: 124: usart_str_1(Data[4]);
  1668  0009C2  0101               	movlb	1	; () banked
  1669  0009C4  511A               	movf	(_Data+8)& (0+255),w,b
  1670  0009C6  ECAF  F00E         	call	_usart_str_1
  1671                           
  1672                           ;newmain_2431.c: 125: usart_str_1(0x40);
  1673  0009CA  0E40               	movlw	64
  1674  0009CC  ECAF  F00E         	call	_usart_str_1
  1675                           
  1676                           ;newmain_2431.c: 126: usart_str_1(Data[4]);
  1677  0009D0  0101               	movlb	1	; () banked
  1678  0009D2  511A               	movf	(_Data+8)& (0+255),w,b
  1679  0009D4  ECAF  F00E         	call	_usart_str_1
  1680                           
  1681                           ;newmain_2431.c: 127: _delay((unsigned long)((22)*(8000000/4000.0)));
  1682  0009D8  0E3A               	movlw	58
  1683  0009DA  0100               	movlb	0	; () banked
  1684  0009DC  6FEC               	movwf	??_main& (0+255),b
  1685  0009DE  0E23               	movlw	35
  1686  0009E0                     u4257:
  1687  0009E0  2EE8               	decfsz	wreg,f,c
  1688  0009E2  D7FE               	goto	u4257
  1689  0009E4  2FEC               	decfsz	??_main& (0+255),f,b
  1690  0009E6  D7FC               	goto	u4257
  1691  0009E8  F000               	nop	
  1692                           
  1693                           ;newmain_2431.c: 128: RC4 = 0;
  1694  0009EA  9882               	bcf	3970,4,c	;volatile
  1695                           
  1696                           ;newmain_2431.c: 129: counter = 0;
  1697  0009EC  0E00               	movlw	0
  1698  0009EE  6E58               	movwf	_counter,c
  1699  0009F0  D5AA               	goto	l3940
  1700  0009F2                     __end_of_main:
  1701                           	opt stack 0
  1702                           tblptru	equ	0xFF8
  1703                           tblptrh	equ	0xFF7
  1704                           tblptrl	equ	0xFF6
  1705                           tablat	equ	0xFF5
  1706                           intcon	equ	0xFF2
  1707                           postinc0	equ	0xFEE
  1708                           wreg	equ	0xFE8
  1709                           postdec1	equ	0xFE5
  1710                           fsr1l	equ	0xFE1
  1711                           status	equ	0xFD8
  1712                           
  1713 ;; *************** function _usart_str_1 *****************
  1714 ;; Defined at:
  1715 ;;		line 116 in file "UART.c"
  1716 ;; Parameters:    Size  Location     Type
  1717 ;;  str             1    wreg     const unsigned char 
  1718 ;; Auto vars:     Size  Location     Type
  1719 ;;  str             1    0[BANK0 ] const unsigned char 
  1720 ;; Return value:  Size  Location     Type
  1721 ;;                  1    wreg      void 
  1722 ;; Registers used:
  1723 ;;		wreg
  1724 ;; Tracked objects:
  1725 ;;		On entry : 0/0
  1726 ;;		On exit  : 0/0
  1727 ;;		Unchanged: 0/0
  1728 ;; Data sizes:     COMRAM   BANK0   BANK1   BANK2
  1729 ;;      Params:         0       0       0       0
  1730 ;;      Locals:         0       1       0       0
  1731 ;;      Temps:          0       0       0       0
  1732 ;;      Totals:         0       1       0       0
  1733 ;;Total ram usage:        1 bytes
  1734 ;; Hardware stack levels used:    1
  1735 ;; Hardware stack levels required when called:    5
  1736 ;; This function calls:
  1737 ;;		Nothing
  1738 ;; This function is called by:
  1739 ;;		_main
  1740 ;;		_UART_Data
  1741 ;;		_vDisplayAscii
  1742 ;; This function uses a non-reentrant model
  1743 ;;
  1744                           
  1745                           	psect	text1
  1746  001D5E                     __ptext1:
  1747                           	opt stack 0
  1748  001D5E                     _usart_str_1:
  1749                           	opt stack 25
  1750                           
  1751                           ;incstack = 0
  1752                           ;usart_str_1@str stored from wreg
  1753  001D5E  0100               	movlb	0	; () banked
  1754  001D60  6FBA               	movwf	usart_str_1@str& (0+255),b
  1755  001D62                     l615:
  1756  001D62  A89E               	btfss	3998,4,c	;volatile
  1757  001D64  D7FE               	goto	l615
  1758                           
  1759                           ;UART.c: 119: TXREG=(str);
  1760  001D66  C0BA  FFAD         	movff	usart_str_1@str,4013	;volatile
  1761  001D6A  0012               	return		;funcret
  1762  001D6C                     __end_of_usart_str_1:
  1763                           	opt stack 0
  1764                           tblptru	equ	0xFF8
  1765                           tblptrh	equ	0xFF7
  1766                           tblptrl	equ	0xFF6
  1767                           tablat	equ	0xFF5
  1768                           intcon	equ	0xFF2
  1769                           postinc0	equ	0xFEE
  1770                           wreg	equ	0xFE8
  1771                           postdec1	equ	0xFE5
  1772                           fsr1l	equ	0xFE1
  1773                           status	equ	0xFD8
  1774                           
  1775 ;; *************** function _usart_init *****************
  1776 ;; Defined at:
  1777 ;;		line 91 in file "UART.c"
  1778 ;; Parameters:    Size  Location     Type
  1779 ;;		None
  1780 ;; Auto vars:     Size  Location     Type
  1781 ;;		None
  1782 ;; Return value:  Size  Location     Type
  1783 ;;                  1    wreg      void 
  1784 ;; Registers used:
  1785 ;;		wreg, status,2
  1786 ;; Tracked objects:
  1787 ;;		On entry : 0/0
  1788 ;;		On exit  : 0/0
  1789 ;;		Unchanged: 0/0
  1790 ;; Data sizes:     COMRAM   BANK0   BANK1   BANK2
  1791 ;;      Params:         0       0       0       0
  1792 ;;      Locals:         0       0       0       0
  1793 ;;      Temps:          0       0       0       0
  1794 ;;      Totals:         0       0       0       0
  1795 ;;Total ram usage:        0 bytes
  1796 ;; Hardware stack levels used:    1
  1797 ;; Hardware stack levels required when called:    5
  1798 ;; This function calls:
  1799 ;;		Nothing
  1800 ;; This function is called by:
  1801 ;;		_main
  1802 ;; This function uses a non-reentrant model
  1803 ;;
  1804                           
  1805                           	psect	text2
  1806  001CF8                     __ptext2:
  1807                           	opt stack 0
  1808  001CF8                     _usart_init:
  1809                           	opt stack 25
  1810                           
  1811                           ;UART.c: 93: TXSTAbits.SYNC = 0;
  1812                           
  1813                           ;incstack = 0
  1814  001CF8  98AC               	bcf	4012,4,c	;volatile
  1815                           
  1816                           ;UART.c: 94: TXSTAbits.BRGH = 1;
  1817  001CFA  84AC               	bsf	4012,2,c	;volatile
  1818                           
  1819                           ;UART.c: 95: BAUDCONbits.BRG16 = 0;
  1820  001CFC  96AA               	bcf	4010,3,c	;volatile
  1821                           
  1822                           ;UART.c: 96: TRISCbits.TRISC6 = 1;
  1823  001CFE  8C94               	bsf	3988,6,c	;volatile
  1824                           
  1825                           ;UART.c: 97: TRISCbits.TRISC7 = 1;
  1826  001D00  8E94               	bsf	3988,7,c	;volatile
  1827                           
  1828                           ;UART.c: 98: TXSTAbits.TXEN = 1;
  1829  001D02  8AAC               	bsf	4012,5,c	;volatile
  1830                           
  1831                           ;UART.c: 99: RCSTAbits.CREN = 1;
  1832  001D04  88AB               	bsf	4011,4,c	;volatile
  1833                           
  1834                           ;UART.c: 100: RCSTAbits.SPEN = 1;
  1835  001D06  8EAB               	bsf	4011,7,c	;volatile
  1836                           
  1837                           ;UART.c: 101: SPBRG1=51;
  1838  001D08  0E33               	movlw	51
  1839  001D0A  6EAF               	movwf	4015,c	;volatile
  1840                           
  1841                           ;UART.c: 103: PIR1bits.RC1IF = 0;
  1842  001D0C  9A9E               	bcf	3998,5,c	;volatile
  1843                           
  1844                           ;UART.c: 104: PIE1bits.RC1IE = 1;
  1845  001D0E  8A9D               	bsf	3997,5,c	;volatile
  1846  001D10  0012               	return		;funcret
  1847  001D12                     __end_of_usart_init:
  1848                           	opt stack 0
  1849                           tblptru	equ	0xFF8
  1850                           tblptrh	equ	0xFF7
  1851                           tblptrl	equ	0xFF6
  1852                           tablat	equ	0xFF5
  1853                           intcon	equ	0xFF2
  1854                           postinc0	equ	0xFEE
  1855                           wreg	equ	0xFE8
  1856                           postdec1	equ	0xFE5
  1857                           fsr1l	equ	0xFE1
  1858                           status	equ	0xFD8
  1859                           
  1860 ;; *************** function ___lwtoft *****************
  1861 ;; Defined at:
  1862 ;;		line 28 in file "C:\Program Files (x86)\Microchip\xc8\v1.38\sources\common\lwtoft.c"
  1863 ;; Parameters:    Size  Location     Type
  1864 ;;  c               2    8[BANK0 ] unsigned int 
  1865 ;; Auto vars:     Size  Location     Type
  1866 ;;		None
  1867 ;; Return value:  Size  Location     Type
  1868 ;;                  3    8[BANK0 ] float 
  1869 ;; Registers used:
  1870 ;;		wreg, status,2, status,0, cstack
  1871 ;; Tracked objects:
  1872 ;;		On entry : 0/0
  1873 ;;		On exit  : 0/0
  1874 ;;		Unchanged: 0/0
  1875 ;; Data sizes:     COMRAM   BANK0   BANK1   BANK2
  1876 ;;      Params:         0       3       0       0
  1877 ;;      Locals:         0       0       0       0
  1878 ;;      Temps:          0       0       0       0
  1879 ;;      Totals:         0       3       0       0
  1880 ;;Total ram usage:        3 bytes
  1881 ;; Hardware stack levels used:    1
  1882 ;; Hardware stack levels required when called:    6
  1883 ;; This function calls:
  1884 ;;		___ftpack
  1885 ;; This function is called by:
  1886 ;;		_main
  1887 ;;		_UART_Data
  1888 ;;		_vDisplayAscii
  1889 ;; This function uses a non-reentrant model
  1890 ;;
  1891                           
  1892                           	psect	text3
  1893  001C48                     __ptext3:
  1894                           	opt stack 0
  1895  001C48                     ___lwtoft:
  1896                           	opt stack 24
  1897                           
  1898                           ;incstack = 0
  1899  001C48  C0C2  F0BA         	movff	___lwtoft@c,___ftpack@arg
  1900  001C4C  C0C3  F0BB         	movff	___lwtoft@c+1,___ftpack@arg+1
  1901  001C50  0100               	movlb	0	; () banked
  1902  001C52  6BBC               	clrf	(___ftpack@arg+2)& (0+255),b
  1903  001C54  0E8E               	movlw	142
  1904  001C56  0100               	movlb	0	; () banked
  1905  001C58  6FBD               	movwf	___ftpack@exp& (0+255),b
  1906  001C5A  0E00               	movlw	0
  1907  001C5C  0100               	movlb	0	; () banked
  1908  001C5E  6FBE               	movwf	___ftpack@sign& (0+255),b
  1909  001C60  EC8E  F009         	call	___ftpack	;wreg free
  1910  001C64  C0BA  F0C2         	movff	?___ftpack,?___lwtoft
  1911  001C68  C0BB  F0C3         	movff	?___ftpack+1,?___lwtoft+1
  1912  001C6C  C0BC  F0C4         	movff	?___ftpack+2,?___lwtoft+2
  1913  001C70  0012               	return	
  1914  001C72                     __end_of___lwtoft:
  1915                           	opt stack 0
  1916                           tblptru	equ	0xFF8
  1917                           tblptrh	equ	0xFF7
  1918                           tblptrl	equ	0xFF6
  1919                           tablat	equ	0xFF5
  1920                           intcon	equ	0xFF2
  1921                           postinc0	equ	0xFEE
  1922                           wreg	equ	0xFE8
  1923                           postdec1	equ	0xFE5
  1924                           fsr1l	equ	0xFE1
  1925                           status	equ	0xFD8
  1926                           
  1927 ;; *************** function ___fttol *****************
  1928 ;; Defined at:
  1929 ;;		line 44 in file "C:\Program Files (x86)\Microchip\xc8\v1.38\sources\common\fttol.c"
  1930 ;; Parameters:    Size  Location     Type
  1931 ;;  f1              3   35[BANK0 ] float 
  1932 ;; Auto vars:     Size  Location     Type
  1933 ;;  lval            4   45[BANK0 ] unsigned long 
  1934 ;;  exp1            1   49[BANK0 ] unsigned char 
  1935 ;;  sign1           1   44[BANK0 ] unsigned char 
  1936 ;; Return value:  Size  Location     Type
  1937 ;;                  4   35[BANK0 ] long 
  1938 ;; Registers used:
  1939 ;;		wreg, status,2, status,0
  1940 ;; Tracked objects:
  1941 ;;		On entry : 0/0
  1942 ;;		On exit  : 0/0
  1943 ;;		Unchanged: 0/0
  1944 ;; Data sizes:     COMRAM   BANK0   BANK1   BANK2
  1945 ;;      Params:         0       4       0       0
  1946 ;;      Locals:         0       6       0       0
  1947 ;;      Temps:          0       5       0       0
  1948 ;;      Totals:         0      15       0       0
  1949 ;;Total ram usage:       15 bytes
  1950 ;; Hardware stack levels used:    1
  1951 ;; Hardware stack levels required when called:    5
  1952 ;; This function calls:
  1953 ;;		Nothing
  1954 ;; This function is called by:
  1955 ;;		_main
  1956 ;;		_vDisplayAscii
  1957 ;; This function uses a non-reentrant model
  1958 ;;
  1959                           
  1960                           	psect	text4
  1961  0010B0                     __ptext4:
  1962                           	opt stack 0
  1963  0010B0                     ___fttol:
  1964                           	opt stack 25
  1965                           
  1966                           ;incstack = 0
  1967  0010B0  C0DF  F0E1         	movff	___fttol@f1+2,??___fttol
  1968  0010B4  0100               	movlb	0	; () banked
  1969  0010B6  6BE2               	clrf	(??___fttol+1)& (0+255),b
  1970  0010B8  6BE3               	clrf	(??___fttol+2)& (0+255),b
  1971  0010BA  0100               	movlb	0	; () banked
  1972  0010BC  35DE               	rlcf	(___fttol@f1+1)& (0+255),w,b
  1973  0010BE  0100               	movlb	0	; () banked
  1974  0010C0  37E1               	rlcf	??___fttol& (0+255),f,b
  1975  0010C2  E301               	bnc	u3461
  1976  0010C4  81E2               	bsf	(??___fttol+1)& (0+255),0,b
  1977  0010C6                     u3461:
  1978  0010C6  0100               	movlb	0	; () banked
  1979  0010C8  51E1               	movf	??___fttol& (0+255),w,b
  1980  0010CA  0100               	movlb	0	; () banked
  1981  0010CC  6FEB               	movwf	___fttol@exp1& (0+255),b
  1982  0010CE  0100               	movlb	0	; () banked
  1983  0010D0  51EB               	movf	___fttol@exp1& (0+255),w,b
  1984  0010D2  A4D8               	btfss	status,2,c
  1985  0010D4  D00A               	goto	l3838
  1986                           
  1987                           ; BSR set to: 0
  1988  0010D6  0E00               	movlw	0
  1989  0010D8  0100               	movlb	0	; () banked
  1990  0010DA  6FDD               	movwf	?___fttol& (0+255),b
  1991  0010DC  0E00               	movlw	0
  1992  0010DE  6FDE               	movwf	(?___fttol+1)& (0+255),b
  1993  0010E0  0E00               	movlw	0
  1994  0010E2  6FDF               	movwf	(?___fttol+2)& (0+255),b
  1995  0010E4  0E00               	movlw	0
  1996  0010E6  6FE0               	movwf	(?___fttol+3)& (0+255),b
  1997                           
  1998                           ; BSR set to: 0
  1999  0010E8  0012               	return	
  2000  0010EA                     l3838:
  2001                           
  2002                           ; BSR set to: 0
  2003  0010EA  0E17               	movlw	23
  2004  0010EC  0100               	movlb	0	; () banked
  2005  0010EE  6FE1               	movwf	??___fttol& (0+255),b
  2006  0010F0  C0DD  F0E2         	movff	___fttol@f1,??___fttol+1
  2007  0010F4  C0DE  F0E3         	movff	___fttol@f1+1,??___fttol+2
  2008  0010F8  C0DF  F0E4         	movff	___fttol@f1+2,??___fttol+3
  2009  0010FC  0100               	movlb	0	; () banked
  2010  0010FE  29E1               	incf	??___fttol& (0+255),w,b
  2011  001100  0100               	movlb	0	; () banked
  2012  001102  6FE5               	movwf	(??___fttol+4)& (0+255),b
  2013  001104  D005               	goto	u3480
  2014  001106                     u3485:
  2015  001106  0100               	movlb	0	; () banked
  2016  001108  90D8               	bcf	status,0,c
  2017  00110A  33E4               	rrcf	(??___fttol+3)& (0+255),f,b
  2018  00110C  33E3               	rrcf	(??___fttol+2)& (0+255),f,b
  2019  00110E  33E2               	rrcf	(??___fttol+1)& (0+255),f,b
  2020  001110                     u3480:
  2021  001110  0100               	movlb	0	; () banked
  2022  001112  2FE5               	decfsz	(??___fttol+4)& (0+255),f,b
  2023  001114  D7F8               	goto	u3485
  2024  001116  0100               	movlb	0	; () banked
  2025  001118  51E2               	movf	(??___fttol+1)& (0+255),w,b
  2026  00111A  0100               	movlb	0	; () banked
  2027  00111C  6FE6               	movwf	___fttol@sign1& (0+255),b
  2028                           
  2029                           ; BSR set to: 0
  2030  00111E  0100               	movlb	0	; () banked
  2031  001120  8FDE               	bsf	(___fttol@f1+1)& (0+255),7,b
  2032                           
  2033                           ; BSR set to: 0
  2034  001122  0EFF               	movlw	255
  2035  001124  0100               	movlb	0	; () banked
  2036  001126  17DD               	andwf	___fttol@f1& (0+255),f,b
  2037  001128  0EFF               	movlw	255
  2038  00112A  0100               	movlb	0	; () banked
  2039  00112C  17DE               	andwf	(___fttol@f1+1)& (0+255),f,b
  2040  00112E  0E00               	movlw	0
  2041  001130  0100               	movlb	0	; () banked
  2042  001132  17DF               	andwf	(___fttol@f1+2)& (0+255),f,b
  2043                           
  2044                           ; BSR set to: 0
  2045  001134  0100               	movlb	0	; () banked
  2046  001136  51DD               	movf	___fttol@f1& (0+255),w,b
  2047  001138  0100               	movlb	0	; () banked
  2048  00113A  6FE7               	movwf	___fttol@lval& (0+255),b
  2049  00113C  0100               	movlb	0	; () banked
  2050  00113E  51DE               	movf	(___fttol@f1+1)& (0+255),w,b
  2051  001140  0100               	movlb	0	; () banked
  2052  001142  6FE8               	movwf	(___fttol@lval+1)& (0+255),b
  2053  001144  0100               	movlb	0	; () banked
  2054  001146  51DF               	movf	(___fttol@f1+2)& (0+255),w,b
  2055  001148  0100               	movlb	0	; () banked
  2056  00114A  6FE9               	movwf	(___fttol@lval+2)& (0+255),b
  2057  00114C  0100               	movlb	0	; () banked
  2058  00114E  6BEA               	clrf	(___fttol@lval+3)& (0+255),b
  2059                           
  2060                           ; BSR set to: 0
  2061  001150  0E8E               	movlw	142
  2062  001152  0100               	movlb	0	; () banked
  2063  001154  5FEB               	subwf	___fttol@exp1& (0+255),f,b
  2064                           
  2065                           ; BSR set to: 0
  2066  001156  0100               	movlb	0	; () banked
  2067  001158  AFEB               	btfss	___fttol@exp1& (0+255),7,b
  2068  00115A  D01A               	goto	l3860
  2069                           
  2070                           ; BSR set to: 0
  2071  00115C  0100               	movlb	0	; () banked
  2072  00115E  51EB               	movf	___fttol@exp1& (0+255),w,b
  2073  001160  0A80               	xorlw	128
  2074  001162  0F8F               	addlw	143
  2075  001164  B0D8               	btfsc	status,0,c
  2076  001166  D00A               	goto	l3856
  2077                           
  2078                           ; BSR set to: 0
  2079  001168  0E00               	movlw	0
  2080  00116A  0100               	movlb	0	; () banked
  2081  00116C  6FDD               	movwf	?___fttol& (0+255),b
  2082  00116E  0E00               	movlw	0
  2083  001170  6FDE               	movwf	(?___fttol+1)& (0+255),b
  2084  001172  0E00               	movlw	0
  2085  001174  6FDF               	movwf	(?___fttol+2)& (0+255),b
  2086  001176  0E00               	movlw	0
  2087  001178  6FE0               	movwf	(?___fttol+3)& (0+255),b
  2088                           
  2089                           ; BSR set to: 0
  2090  00117A  0012               	return	
  2091  00117C                     l3856:
  2092                           
  2093                           ; BSR set to: 0
  2094  00117C  0100               	movlb	0	; () banked
  2095  00117E  90D8               	bcf	status,0,c
  2096  001180  33EA               	rrcf	(___fttol@lval+3)& (0+255),f,b
  2097  001182  33E9               	rrcf	(___fttol@lval+2)& (0+255),f,b
  2098  001184  33E8               	rrcf	(___fttol@lval+1)& (0+255),f,b
  2099  001186  33E7               	rrcf	___fttol@lval& (0+255),f,b
  2100                           
  2101                           ; BSR set to: 0
  2102  001188  0100               	movlb	0	; () banked
  2103  00118A  3FEB               	incfsz	___fttol@exp1& (0+255),f,b
  2104  00118C  D7F7               	goto	l3856
  2105                           
  2106                           ; BSR set to: 0
  2107  00118E  D01B               	goto	l3870
  2108  001190                     l3860:
  2109                           
  2110                           ; BSR set to: 0
  2111  001190  0E17               	movlw	23
  2112  001192  0100               	movlb	0	; () banked
  2113  001194  65EB               	cpfsgt	___fttol@exp1& (0+255),b
  2114  001196  D012               	goto	l3868
  2115                           
  2116                           ; BSR set to: 0
  2117  001198  0E00               	movlw	0
  2118  00119A  0100               	movlb	0	; () banked
  2119  00119C  6FDD               	movwf	?___fttol& (0+255),b
  2120  00119E  0E00               	movlw	0
  2121  0011A0  6FDE               	movwf	(?___fttol+1)& (0+255),b
  2122  0011A2  0E00               	movlw	0
  2123  0011A4  6FDF               	movwf	(?___fttol+2)& (0+255),b
  2124  0011A6  0E00               	movlw	0
  2125  0011A8  6FE0               	movwf	(?___fttol+3)& (0+255),b
  2126                           
  2127                           ; BSR set to: 0
  2128  0011AA  0012               	return	
  2129  0011AC                     l3866:
  2130                           
  2131                           ; BSR set to: 0
  2132  0011AC  0100               	movlb	0	; () banked
  2133  0011AE  90D8               	bcf	status,0,c
  2134  0011B0  37E7               	rlcf	___fttol@lval& (0+255),f,b
  2135  0011B2  37E8               	rlcf	(___fttol@lval+1)& (0+255),f,b
  2136  0011B4  37E9               	rlcf	(___fttol@lval+2)& (0+255),f,b
  2137  0011B6  37EA               	rlcf	(___fttol@lval+3)& (0+255),f,b
  2138  0011B8  0100               	movlb	0	; () banked
  2139  0011BA  07EB               	decf	___fttol@exp1& (0+255),f,b
  2140  0011BC                     l3868:
  2141                           
  2142                           ; BSR set to: 0
  2143  0011BC  0100               	movlb	0	; () banked
  2144  0011BE  51EB               	movf	___fttol@exp1& (0+255),w,b
  2145  0011C0  0100               	movlb	0	; () banked
  2146  0011C2  A4D8               	btfss	status,2,c
  2147  0011C4  D7F3               	goto	l3866
  2148  0011C6                     l3870:
  2149                           
  2150                           ; BSR set to: 0
  2151  0011C6  0100               	movlb	0	; () banked
  2152  0011C8  51E6               	movf	___fttol@sign1& (0+255),w,b
  2153  0011CA  0100               	movlb	0	; () banked
  2154  0011CC  B4D8               	btfsc	status,2,c
  2155  0011CE  D009               	goto	l3874
  2156                           
  2157                           ; BSR set to: 0
  2158  0011D0  0100               	movlb	0	; () banked
  2159  0011D2  1FEA               	comf	(___fttol@lval+3)& (0+255),f,b
  2160  0011D4  1FE9               	comf	(___fttol@lval+2)& (0+255),f,b
  2161  0011D6  1FE8               	comf	(___fttol@lval+1)& (0+255),f,b
  2162  0011D8  6DE7               	negf	___fttol@lval& (0+255),b
  2163  0011DA  0E00               	movlw	0
  2164  0011DC  23E8               	addwfc	(___fttol@lval+1)& (0+255),f,b
  2165  0011DE  23E9               	addwfc	(___fttol@lval+2)& (0+255),f,b
  2166  0011E0  23EA               	addwfc	(___fttol@lval+3)& (0+255),f,b
  2167  0011E2                     l3874:
  2168                           
  2169                           ; BSR set to: 0
  2170  0011E2  C0E7  F0DD         	movff	___fttol@lval,?___fttol
  2171  0011E6  C0E8  F0DE         	movff	___fttol@lval+1,?___fttol+1
  2172  0011EA  C0E9  F0DF         	movff	___fttol@lval+2,?___fttol+2
  2173  0011EE  C0EA  F0E0         	movff	___fttol@lval+3,?___fttol+3
  2174  0011F2  0012               	return	
  2175  0011F4                     __end_of___fttol:
  2176                           	opt stack 0
  2177                           tblptru	equ	0xFF8
  2178                           tblptrh	equ	0xFF7
  2179                           tblptrl	equ	0xFF6
  2180                           tablat	equ	0xFF5
  2181                           intcon	equ	0xFF2
  2182                           postinc0	equ	0xFEE
  2183                           wreg	equ	0xFE8
  2184                           postdec1	equ	0xFE5
  2185                           fsr1l	equ	0xFE1
  2186                           status	equ	0xFD8
  2187                           
  2188 ;; *************** function ___ftmul *****************
  2189 ;; Defined at:
  2190 ;;		line 62 in file "C:\Program Files (x86)\Microchip\xc8\v1.38\sources\common\ftmul.c"
  2191 ;; Parameters:    Size  Location     Type
  2192 ;;  f1              3   20[BANK0 ] float 
  2193 ;;  f2              3   23[BANK0 ] float 
  2194 ;; Auto vars:     Size  Location     Type
  2195 ;;  f3_as_produc    3   30[BANK0 ] unsigned um
  2196 ;;  sign            1   34[BANK0 ] unsigned char 
  2197 ;;  cntr            1   33[BANK0 ] unsigned char 
  2198 ;;  exp             1   29[BANK0 ] unsigned char 
  2199 ;; Return value:  Size  Location     Type
  2200 ;;                  3   20[BANK0 ] float 
  2201 ;; Registers used:
  2202 ;;		wreg, status,2, status,0, cstack
  2203 ;; Tracked objects:
  2204 ;;		On entry : 0/0
  2205 ;;		On exit  : 0/0
  2206 ;;		Unchanged: 0/0
  2207 ;; Data sizes:     COMRAM   BANK0   BANK1   BANK2
  2208 ;;      Params:         0       6       0       0
  2209 ;;      Locals:         0       6       0       0
  2210 ;;      Temps:          0       3       0       0
  2211 ;;      Totals:         0      15       0       0
  2212 ;;Total ram usage:       15 bytes
  2213 ;; Hardware stack levels used:    1
  2214 ;; Hardware stack levels required when called:    6
  2215 ;; This function calls:
  2216 ;;		___ftpack
  2217 ;; This function is called by:
  2218 ;;		_main
  2219 ;;		_vDisplayAscii
  2220 ;; This function uses a non-reentrant model
  2221 ;;
  2222                           
  2223                           	psect	text5
  2224  000E06                     __ptext5:
  2225                           	opt stack 0
  2226  000E06                     ___ftmul:
  2227                           	opt stack 24
  2228                           
  2229                           ; BSR set to: 0
  2230                           ;incstack = 0
  2231  000E06  C0D0  F0D4         	movff	___ftmul@f1+2,??___ftmul
  2232  000E0A  0100               	movlb	0	; () banked
  2233  000E0C  6BD5               	clrf	(??___ftmul+1)& (0+255),b
  2234  000E0E  6BD6               	clrf	(??___ftmul+2)& (0+255),b
  2235  000E10  0100               	movlb	0	; () banked
  2236  000E12  35CF               	rlcf	(___ftmul@f1+1)& (0+255),w,b
  2237  000E14  0100               	movlb	0	; () banked
  2238  000E16  37D4               	rlcf	??___ftmul& (0+255),f,b
  2239  000E18  E301               	bnc	u3371
  2240  000E1A  81D5               	bsf	(??___ftmul+1)& (0+255),0,b
  2241  000E1C                     u3371:
  2242  000E1C  0100               	movlb	0	; () banked
  2243  000E1E  51D4               	movf	??___ftmul& (0+255),w,b
  2244  000E20  0100               	movlb	0	; () banked
  2245  000E22  6FD7               	movwf	___ftmul@exp& (0+255),b
  2246  000E24  0100               	movlb	0	; () banked
  2247  000E26  51D7               	movf	___ftmul@exp& (0+255),w,b
  2248  000E28  A4D8               	btfss	status,2,c
  2249  000E2A  D00A               	goto	l3772
  2250                           
  2251                           ; BSR set to: 0
  2252  000E2C  0E00               	movlw	0
  2253  000E2E  0100               	movlb	0	; () banked
  2254  000E30  6FCE               	movwf	?___ftmul& (0+255),b
  2255  000E32  0E00               	movlw	0
  2256  000E34  0100               	movlb	0	; () banked
  2257  000E36  6FCF               	movwf	(?___ftmul+1)& (0+255),b
  2258  000E38  0E00               	movlw	0
  2259  000E3A  0100               	movlb	0	; () banked
  2260  000E3C  6FD0               	movwf	(?___ftmul+2)& (0+255),b
  2261                           
  2262                           ; BSR set to: 0
  2263  000E3E  0012               	return	
  2264  000E40                     l3772:
  2265                           
  2266                           ; BSR set to: 0
  2267  000E40  C0D3  F0D4         	movff	___ftmul@f2+2,??___ftmul
  2268  000E44  0100               	movlb	0	; () banked
  2269  000E46  6BD5               	clrf	(??___ftmul+1)& (0+255),b
  2270  000E48  6BD6               	clrf	(??___ftmul+2)& (0+255),b
  2271  000E4A  0100               	movlb	0	; () banked
  2272  000E4C  35D2               	rlcf	(___ftmul@f2+1)& (0+255),w,b
  2273  000E4E  0100               	movlb	0	; () banked
  2274  000E50  37D4               	rlcf	??___ftmul& (0+255),f,b
  2275  000E52  E301               	bnc	u3391
  2276  000E54  81D5               	bsf	(??___ftmul+1)& (0+255),0,b
  2277  000E56                     u3391:
  2278  000E56  0100               	movlb	0	; () banked
  2279  000E58  51D4               	movf	??___ftmul& (0+255),w,b
  2280  000E5A  0100               	movlb	0	; () banked
  2281  000E5C  6FDC               	movwf	___ftmul@sign& (0+255),b
  2282  000E5E  0100               	movlb	0	; () banked
  2283  000E60  51DC               	movf	___ftmul@sign& (0+255),w,b
  2284  000E62  A4D8               	btfss	status,2,c
  2285  000E64  D00A               	goto	l3778
  2286                           
  2287                           ; BSR set to: 0
  2288  000E66  0E00               	movlw	0
  2289  000E68  0100               	movlb	0	; () banked
  2290  000E6A  6FCE               	movwf	?___ftmul& (0+255),b
  2291  000E6C  0E00               	movlw	0
  2292  000E6E  0100               	movlb	0	; () banked
  2293  000E70  6FCF               	movwf	(?___ftmul+1)& (0+255),b
  2294  000E72  0E00               	movlw	0
  2295  000E74  0100               	movlb	0	; () banked
  2296  000E76  6FD0               	movwf	(?___ftmul+2)& (0+255),b
  2297                           
  2298                           ; BSR set to: 0
  2299  000E78  0012               	return	
  2300  000E7A                     l3778:
  2301                           
  2302                           ; BSR set to: 0
  2303  000E7A  0100               	movlb	0	; () banked
  2304  000E7C  51DC               	movf	___ftmul@sign& (0+255),w,b
  2305  000E7E  0F7B               	addlw	123
  2306  000E80  0100               	movlb	0	; () banked
  2307  000E82  27D7               	addwf	___ftmul@exp& (0+255),f,b
  2308                           
  2309                           ; BSR set to: 0
  2310  000E84  C0D0  F0DC         	movff	___ftmul@f1+2,___ftmul@sign
  2311  000E88  0100               	movlb	0	; () banked
  2312  000E8A  51D3               	movf	(___ftmul@f2+2)& (0+255),w,b
  2313  000E8C  0100               	movlb	0	; () banked
  2314  000E8E  1BDC               	xorwf	___ftmul@sign& (0+255),f,b
  2315  000E90  0E80               	movlw	128
  2316  000E92  0100               	movlb	0	; () banked
  2317  000E94  17DC               	andwf	___ftmul@sign& (0+255),f,b
  2318                           
  2319                           ; BSR set to: 0
  2320  000E96  0100               	movlb	0	; () banked
  2321  000E98  8FCF               	bsf	(___ftmul@f1+1)& (0+255),7,b
  2322                           
  2323                           ; BSR set to: 0
  2324  000E9A  0100               	movlb	0	; () banked
  2325  000E9C  8FD2               	bsf	(___ftmul@f2+1)& (0+255),7,b
  2326                           
  2327                           ; BSR set to: 0
  2328  000E9E  0EFF               	movlw	255
  2329  000EA0  0100               	movlb	0	; () banked
  2330  000EA2  17D1               	andwf	___ftmul@f2& (0+255),f,b
  2331  000EA4  0EFF               	movlw	255
  2332  000EA6  0100               	movlb	0	; () banked
  2333  000EA8  17D2               	andwf	(___ftmul@f2+1)& (0+255),f,b
  2334  000EAA  0E00               	movlw	0
  2335  000EAC  0100               	movlb	0	; () banked
  2336  000EAE  17D3               	andwf	(___ftmul@f2+2)& (0+255),f,b
  2337                           
  2338                           ; BSR set to: 0
  2339  000EB0  0E00               	movlw	0
  2340  000EB2  0100               	movlb	0	; () banked
  2341  000EB4  6FD8               	movwf	___ftmul@f3_as_product& (0+255),b
  2342  000EB6  0E00               	movlw	0
  2343  000EB8  0100               	movlb	0	; () banked
  2344  000EBA  6FD9               	movwf	(___ftmul@f3_as_product+1)& (0+255),b
  2345  000EBC  0E00               	movlw	0
  2346  000EBE  0100               	movlb	0	; () banked
  2347  000EC0  6FDA               	movwf	(___ftmul@f3_as_product+2)& (0+255),b
  2348                           
  2349                           ; BSR set to: 0
  2350  000EC2  0E07               	movlw	7
  2351  000EC4  0100               	movlb	0	; () banked
  2352  000EC6  6FDB               	movwf	___ftmul@cntr& (0+255),b
  2353  000EC8                     l3792:
  2354                           
  2355                           ; BSR set to: 0
  2356  000EC8  0100               	movlb	0	; () banked
  2357  000ECA  A1CE               	btfss	___ftmul@f1& (0+255),0,b
  2358  000ECC  D00C               	goto	l3796
  2359                           
  2360                           ; BSR set to: 0
  2361  000ECE  0100               	movlb	0	; () banked
  2362  000ED0  51D1               	movf	___ftmul@f2& (0+255),w,b
  2363  000ED2  0100               	movlb	0	; () banked
  2364  000ED4  27D8               	addwf	___ftmul@f3_as_product& (0+255),f,b
  2365  000ED6  0100               	movlb	0	; () banked
  2366  000ED8  51D2               	movf	(___ftmul@f2+1)& (0+255),w,b
  2367  000EDA  0100               	movlb	0	; () banked
  2368  000EDC  23D9               	addwfc	(___ftmul@f3_as_product+1)& (0+255),f,b
  2369  000EDE  0100               	movlb	0	; () banked
  2370  000EE0  51D3               	movf	(___ftmul@f2+2)& (0+255),w,b
  2371  000EE2  0100               	movlb	0	; () banked
  2372  000EE4  23DA               	addwfc	(___ftmul@f3_as_product+2)& (0+255),f,b
  2373  000EE6                     l3796:
  2374                           
  2375                           ; BSR set to: 0
  2376  000EE6  0100               	movlb	0	; () banked
  2377  000EE8  90D8               	bcf	status,0,c
  2378  000EEA  33D0               	rrcf	(___ftmul@f1+2)& (0+255),f,b
  2379  000EEC  33CF               	rrcf	(___ftmul@f1+1)& (0+255),f,b
  2380  000EEE  33CE               	rrcf	___ftmul@f1& (0+255),f,b
  2381  000EF0  0100               	movlb	0	; () banked
  2382  000EF2  90D8               	bcf	status,0,c
  2383  000EF4  37D1               	rlcf	___ftmul@f2& (0+255),f,b
  2384  000EF6  37D2               	rlcf	(___ftmul@f2+1)& (0+255),f,b
  2385  000EF8  37D3               	rlcf	(___ftmul@f2+2)& (0+255),f,b
  2386                           
  2387                           ; BSR set to: 0
  2388  000EFA  0100               	movlb	0	; () banked
  2389  000EFC  2FDB               	decfsz	___ftmul@cntr& (0+255),f,b
  2390  000EFE  D7E4               	goto	l3792
  2391                           
  2392                           ; BSR set to: 0
  2393                           
  2394                           ; BSR set to: 0
  2395  000F00  0E09               	movlw	9
  2396  000F02  0100               	movlb	0	; () banked
  2397  000F04  6FDB               	movwf	___ftmul@cntr& (0+255),b
  2398  000F06                     l3802:
  2399                           
  2400                           ; BSR set to: 0
  2401  000F06  0100               	movlb	0	; () banked
  2402  000F08  A1CE               	btfss	___ftmul@f1& (0+255),0,b
  2403  000F0A  D00C               	goto	l3806
  2404                           
  2405                           ; BSR set to: 0
  2406  000F0C  0100               	movlb	0	; () banked
  2407  000F0E  51D1               	movf	___ftmul@f2& (0+255),w,b
  2408  000F10  0100               	movlb	0	; () banked
  2409  000F12  27D8               	addwf	___ftmul@f3_as_product& (0+255),f,b
  2410  000F14  0100               	movlb	0	; () banked
  2411  000F16  51D2               	movf	(___ftmul@f2+1)& (0+255),w,b
  2412  000F18  0100               	movlb	0	; () banked
  2413  000F1A  23D9               	addwfc	(___ftmul@f3_as_product+1)& (0+255),f,b
  2414  000F1C  0100               	movlb	0	; () banked
  2415  000F1E  51D3               	movf	(___ftmul@f2+2)& (0+255),w,b
  2416  000F20  0100               	movlb	0	; () banked
  2417  000F22  23DA               	addwfc	(___ftmul@f3_as_product+2)& (0+255),f,b
  2418  000F24                     l3806:
  2419                           
  2420                           ; BSR set to: 0
  2421  000F24  0100               	movlb	0	; () banked
  2422  000F26  90D8               	bcf	status,0,c
  2423  000F28  33D0               	rrcf	(___ftmul@f1+2)& (0+255),f,b
  2424  000F2A  33CF               	rrcf	(___ftmul@f1+1)& (0+255),f,b
  2425  000F2C  33CE               	rrcf	___ftmul@f1& (0+255),f,b
  2426  000F2E  0100               	movlb	0	; () banked
  2427  000F30  90D8               	bcf	status,0,c
  2428  000F32  33DA               	rrcf	(___ftmul@f3_as_product+2)& (0+255),f,b
  2429  000F34  33D9               	rrcf	(___ftmul@f3_as_product+1)& (0+255),f,b
  2430  000F36  33D8               	rrcf	___ftmul@f3_as_product& (0+255),f,b
  2431                           
  2432                           ; BSR set to: 0
  2433  000F38  0100               	movlb	0	; () banked
  2434  000F3A  2FDB               	decfsz	___ftmul@cntr& (0+255),f,b
  2435  000F3C  D7E4               	goto	l3802
  2436                           
  2437                           ; BSR set to: 0
  2438                           
  2439                           ; BSR set to: 0
  2440  000F3E  C0D8  F0BA         	movff	___ftmul@f3_as_product,___ftpack@arg
  2441  000F42  C0D9  F0BB         	movff	___ftmul@f3_as_product+1,___ftpack@arg+1
  2442  000F46  C0DA  F0BC         	movff	___ftmul@f3_as_product+2,___ftpack@arg+2
  2443  000F4A  C0D7  F0BD         	movff	___ftmul@exp,___ftpack@exp
  2444  000F4E  C0DC  F0BE         	movff	___ftmul@sign,___ftpack@sign
  2445  000F52  EC8E  F009         	call	___ftpack	;wreg free
  2446  000F56  C0BA  F0CE         	movff	?___ftpack,?___ftmul
  2447  000F5A  C0BB  F0CF         	movff	?___ftpack+1,?___ftmul+1
  2448  000F5E  C0BC  F0D0         	movff	?___ftpack+2,?___ftmul+2
  2449  000F62  0012               	return	
  2450  000F64                     __end_of___ftmul:
  2451                           	opt stack 0
  2452                           tblptru	equ	0xFF8
  2453                           tblptrh	equ	0xFF7
  2454                           tblptrl	equ	0xFF6
  2455                           tablat	equ	0xFF5
  2456                           intcon	equ	0xFF2
  2457                           postinc0	equ	0xFEE
  2458                           wreg	equ	0xFE8
  2459                           postdec1	equ	0xFE5
  2460                           fsr1l	equ	0xFE1
  2461                           status	equ	0xFD8
  2462                           
  2463 ;; *************** function ___ftge *****************
  2464 ;; Defined at:
  2465 ;;		line 4 in file "C:\Program Files (x86)\Microchip\xc8\v1.38\sources\common\ftge.c"
  2466 ;; Parameters:    Size  Location     Type
  2467 ;;  ff1             3    0[BANK0 ] float 
  2468 ;;  ff2             3    3[BANK0 ] float 
  2469 ;; Auto vars:     Size  Location     Type
  2470 ;;		None
  2471 ;; Return value:  Size  Location     Type
  2472 ;;		None               void
  2473 ;; Registers used:
  2474 ;;		wreg, status,2, status,0
  2475 ;; Tracked objects:
  2476 ;;		On entry : 0/0
  2477 ;;		On exit  : 0/0
  2478 ;;		Unchanged: 0/0
  2479 ;; Data sizes:     COMRAM   BANK0   BANK1   BANK2
  2480 ;;      Params:         0       6       0       0
  2481 ;;      Locals:         0       0       0       0
  2482 ;;      Temps:          0       3       0       0
  2483 ;;      Totals:         0       9       0       0
  2484 ;;Total ram usage:        9 bytes
  2485 ;; Hardware stack levels used:    1
  2486 ;; Hardware stack levels required when called:    5
  2487 ;; This function calls:
  2488 ;;		Nothing
  2489 ;; This function is called by:
  2490 ;;		_main
  2491 ;; This function uses a non-reentrant model
  2492 ;;
  2493                           
  2494                           	psect	text6
  2495  0017E8                     __ptext6:
  2496                           	opt stack 0
  2497  0017E8                     ___ftge:
  2498                           	opt stack 25
  2499                           
  2500                           ;incstack = 0
  2501  0017E8  0100               	movlb	0	; () banked
  2502  0017EA  AFBC               	btfss	(___ftge@ff1+2)& (0+255),7,b
  2503  0017EC  D01D               	goto	l3818
  2504                           
  2505                           ; BSR set to: 0
  2506  0017EE  C0BA  F0C0         	movff	___ftge@ff1,??___ftge
  2507  0017F2  C0BB  F0C1         	movff	___ftge@ff1+1,??___ftge+1
  2508  0017F6  C0BC  F0C2         	movff	___ftge@ff1+2,??___ftge+2
  2509  0017FA  0100               	movlb	0	; () banked
  2510  0017FC  1FC0               	comf	??___ftge& (0+255),f,b
  2511  0017FE  1FC1               	comf	(??___ftge+1)& (0+255),f,b
  2512  001800  1FC2               	comf	(??___ftge+2)& (0+255),f,b
  2513  001802  2BC0               	incf	??___ftge& (0+255),f,b
  2514  001804  0E00               	movlw	0
  2515  001806  23C1               	addwfc	(??___ftge+1)& (0+255),f,b
  2516  001808  23C2               	addwfc	(??___ftge+2)& (0+255),f,b
  2517  00180A  0E00               	movlw	0
  2518  00180C  0100               	movlb	0	; () banked
  2519  00180E  25C0               	addwf	??___ftge& (0+255),w,b
  2520  001810  0100               	movlb	0	; () banked
  2521  001812  6FBA               	movwf	___ftge@ff1& (0+255),b
  2522  001814  0E00               	movlw	0
  2523  001816  0100               	movlb	0	; () banked
  2524  001818  21C1               	addwfc	(??___ftge+1)& (0+255),w,b
  2525  00181A  0100               	movlb	0	; () banked
  2526  00181C  6FBB               	movwf	(___ftge@ff1+1)& (0+255),b
  2527  00181E  0E80               	movlw	128
  2528  001820  0100               	movlb	0	; () banked
  2529  001822  21C2               	addwfc	(??___ftge+2)& (0+255),w,b
  2530  001824  0100               	movlb	0	; () banked
  2531  001826  6FBC               	movwf	(___ftge@ff1+2)& (0+255),b
  2532  001828                     l3818:
  2533                           
  2534                           ; BSR set to: 0
  2535  001828  0100               	movlb	0	; () banked
  2536  00182A  AFBF               	btfss	(___ftge@ff2+2)& (0+255),7,b
  2537  00182C  D01D               	goto	l3822
  2538                           
  2539                           ; BSR set to: 0
  2540  00182E  C0BD  F0C0         	movff	___ftge@ff2,??___ftge
  2541  001832  C0BE  F0C1         	movff	___ftge@ff2+1,??___ftge+1
  2542  001836  C0BF  F0C2         	movff	___ftge@ff2+2,??___ftge+2
  2543  00183A  0100               	movlb	0	; () banked
  2544  00183C  1FC0               	comf	??___ftge& (0+255),f,b
  2545  00183E  1FC1               	comf	(??___ftge+1)& (0+255),f,b
  2546  001840  1FC2               	comf	(??___ftge+2)& (0+255),f,b
  2547  001842  2BC0               	incf	??___ftge& (0+255),f,b
  2548  001844  0E00               	movlw	0
  2549  001846  23C1               	addwfc	(??___ftge+1)& (0+255),f,b
  2550  001848  23C2               	addwfc	(??___ftge+2)& (0+255),f,b
  2551  00184A  0E00               	movlw	0
  2552  00184C  0100               	movlb	0	; () banked
  2553  00184E  25C0               	addwf	??___ftge& (0+255),w,b
  2554  001850  0100               	movlb	0	; () banked
  2555  001852  6FBD               	movwf	___ftge@ff2& (0+255),b
  2556  001854  0E00               	movlw	0
  2557  001856  0100               	movlb	0	; () banked
  2558  001858  21C1               	addwfc	(??___ftge+1)& (0+255),w,b
  2559  00185A  0100               	movlb	0	; () banked
  2560  00185C  6FBE               	movwf	(___ftge@ff2+1)& (0+255),b
  2561  00185E  0E80               	movlw	128
  2562  001860  0100               	movlb	0	; () banked
  2563  001862  21C2               	addwfc	(??___ftge+2)& (0+255),w,b
  2564  001864  0100               	movlb	0	; () banked
  2565  001866  6FBF               	movwf	(___ftge@ff2+2)& (0+255),b
  2566  001868                     l3822:
  2567                           
  2568                           ; BSR set to: 0
  2569  001868  0E00               	movlw	0
  2570  00186A  0100               	movlb	0	; () banked
  2571  00186C  1BBA               	xorwf	___ftge@ff1& (0+255),f,b
  2572  00186E  0E00               	movlw	0
  2573  001870  0100               	movlb	0	; () banked
  2574  001872  1BBB               	xorwf	(___ftge@ff1+1)& (0+255),f,b
  2575  001874  0E80               	movlw	128
  2576  001876  0100               	movlb	0	; () banked
  2577  001878  1BBC               	xorwf	(___ftge@ff1+2)& (0+255),f,b
  2578                           
  2579                           ; BSR set to: 0
  2580  00187A  0E00               	movlw	0
  2581  00187C  0100               	movlb	0	; () banked
  2582  00187E  1BBD               	xorwf	___ftge@ff2& (0+255),f,b
  2583  001880  0E00               	movlw	0
  2584  001882  0100               	movlb	0	; () banked
  2585  001884  1BBE               	xorwf	(___ftge@ff2+1)& (0+255),f,b
  2586  001886  0E80               	movlw	128
  2587  001888  0100               	movlb	0	; () banked
  2588  00188A  1BBF               	xorwf	(___ftge@ff2+2)& (0+255),f,b
  2589  00188C  0100               	movlb	0	; () banked
  2590  00188E  51BD               	movf	___ftge@ff2& (0+255),w,b
  2591  001890  0100               	movlb	0	; () banked
  2592  001892  5DBA               	subwf	___ftge@ff1& (0+255),w,b
  2593  001894  0100               	movlb	0	; () banked
  2594  001896  51BE               	movf	(___ftge@ff2+1)& (0+255),w,b
  2595  001898  0100               	movlb	0	; () banked
  2596  00189A  59BB               	subwfb	(___ftge@ff1+1)& (0+255),w,b
  2597  00189C  0100               	movlb	0	; () banked
  2598  00189E  51BF               	movf	(___ftge@ff2+2)& (0+255),w,b
  2599  0018A0  0100               	movlb	0	; () banked
  2600  0018A2  59BC               	subwfb	(___ftge@ff1+2)& (0+255),w,b
  2601  0018A4  B0D8               	btfsc	status,0,c
  2602  0018A6  D002               	goto	l3828
  2603                           
  2604                           ; BSR set to: 0
  2605  0018A8  90D8               	bcf	status,0,c
  2606  0018AA  0012               	return	
  2607  0018AC                     l3828:
  2608                           
  2609                           ; BSR set to: 0
  2610  0018AC  80D8               	bsf	status,0,c
  2611                           
  2612                           ; BSR set to: 0
  2613  0018AE  0012               	return	
  2614  0018B0                     __end_of___ftge:
  2615                           	opt stack 0
  2616                           tblptru	equ	0xFF8
  2617                           tblptrh	equ	0xFF7
  2618                           tblptrl	equ	0xFF6
  2619                           tablat	equ	0xFF5
  2620                           intcon	equ	0xFF2
  2621                           postinc0	equ	0xFEE
  2622                           wreg	equ	0xFE8
  2623                           postdec1	equ	0xFE5
  2624                           fsr1l	equ	0xFE1
  2625                           status	equ	0xFD8
  2626                           
  2627 ;; *************** function ___ftdiv *****************
  2628 ;; Defined at:
  2629 ;;		line 54 in file "C:\Program Files (x86)\Microchip\xc8\v1.38\sources\common\ftdiv.c"
  2630 ;; Parameters:    Size  Location     Type
  2631 ;;  f1              3   20[BANK0 ] float 
  2632 ;;  f2              3   23[BANK0 ] float 
  2633 ;; Auto vars:     Size  Location     Type
  2634 ;;  f3              3   30[BANK0 ] float 
  2635 ;;  sign            1   34[BANK0 ] unsigned char 
  2636 ;;  exp             1   33[BANK0 ] unsigned char 
  2637 ;;  cntr            1   29[BANK0 ] unsigned char 
  2638 ;; Return value:  Size  Location     Type
  2639 ;;                  3   20[BANK0 ] float 
  2640 ;; Registers used:
  2641 ;;		wreg, status,2, status,0, cstack
  2642 ;; Tracked objects:
  2643 ;;		On entry : 0/0
  2644 ;;		On exit  : 0/0
  2645 ;;		Unchanged: 0/0
  2646 ;; Data sizes:     COMRAM   BANK0   BANK1   BANK2
  2647 ;;      Params:         0       6       0       0
  2648 ;;      Locals:         0       6       0       0
  2649 ;;      Temps:          0       3       0       0
  2650 ;;      Totals:         0      15       0       0
  2651 ;;Total ram usage:       15 bytes
  2652 ;; Hardware stack levels used:    1
  2653 ;; Hardware stack levels required when called:    6
  2654 ;; This function calls:
  2655 ;;		___ftpack
  2656 ;; This function is called by:
  2657 ;;		_main
  2658 ;;		_vDisplayAscii
  2659 ;; This function uses a non-reentrant model
  2660 ;;
  2661                           
  2662                           	psect	text7
  2663  000F64                     __ptext7:
  2664                           	opt stack 0
  2665  000F64                     ___ftdiv:
  2666                           	opt stack 24
  2667                           
  2668                           ; BSR set to: 0
  2669                           ;incstack = 0
  2670  000F64  C0D0  F0D4         	movff	___ftdiv@f1+2,??___ftdiv
  2671  000F68  0100               	movlb	0	; () banked
  2672  000F6A  6BD5               	clrf	(??___ftdiv+1)& (0+255),b
  2673  000F6C  6BD6               	clrf	(??___ftdiv+2)& (0+255),b
  2674  000F6E  0100               	movlb	0	; () banked
  2675  000F70  35CF               	rlcf	(___ftdiv@f1+1)& (0+255),w,b
  2676  000F72  0100               	movlb	0	; () banked
  2677  000F74  37D4               	rlcf	??___ftdiv& (0+255),f,b
  2678  000F76  E301               	bnc	u3321
  2679  000F78  81D5               	bsf	(??___ftdiv+1)& (0+255),0,b
  2680  000F7A                     u3321:
  2681  000F7A  0100               	movlb	0	; () banked
  2682  000F7C  51D4               	movf	??___ftdiv& (0+255),w,b
  2683  000F7E  0100               	movlb	0	; () banked
  2684  000F80  6FDB               	movwf	___ftdiv@exp& (0+255),b
  2685  000F82  0100               	movlb	0	; () banked
  2686  000F84  51DB               	movf	___ftdiv@exp& (0+255),w,b
  2687  000F86  A4D8               	btfss	status,2,c
  2688  000F88  D00A               	goto	l3726
  2689                           
  2690                           ; BSR set to: 0
  2691  000F8A  0E00               	movlw	0
  2692  000F8C  0100               	movlb	0	; () banked
  2693  000F8E  6FCE               	movwf	?___ftdiv& (0+255),b
  2694  000F90  0E00               	movlw	0
  2695  000F92  0100               	movlb	0	; () banked
  2696  000F94  6FCF               	movwf	(?___ftdiv+1)& (0+255),b
  2697  000F96  0E00               	movlw	0
  2698  000F98  0100               	movlb	0	; () banked
  2699  000F9A  6FD0               	movwf	(?___ftdiv+2)& (0+255),b
  2700                           
  2701                           ; BSR set to: 0
  2702  000F9C  0012               	return	
  2703  000F9E                     l3726:
  2704                           
  2705                           ; BSR set to: 0
  2706  000F9E  C0D3  F0D4         	movff	___ftdiv@f2+2,??___ftdiv
  2707  000FA2  0100               	movlb	0	; () banked
  2708  000FA4  6BD5               	clrf	(??___ftdiv+1)& (0+255),b
  2709  000FA6  6BD6               	clrf	(??___ftdiv+2)& (0+255),b
  2710  000FA8  0100               	movlb	0	; () banked
  2711  000FAA  35D2               	rlcf	(___ftdiv@f2+1)& (0+255),w,b
  2712  000FAC  0100               	movlb	0	; () banked
  2713  000FAE  37D4               	rlcf	??___ftdiv& (0+255),f,b
  2714  000FB0  E301               	bnc	u3341
  2715  000FB2  81D5               	bsf	(??___ftdiv+1)& (0+255),0,b
  2716  000FB4                     u3341:
  2717  000FB4  0100               	movlb	0	; () banked
  2718  000FB6  51D4               	movf	??___ftdiv& (0+255),w,b
  2719  000FB8  0100               	movlb	0	; () banked
  2720  000FBA  6FDC               	movwf	___ftdiv@sign& (0+255),b
  2721  000FBC  0100               	movlb	0	; () banked
  2722  000FBE  51DC               	movf	___ftdiv@sign& (0+255),w,b
  2723  000FC0  A4D8               	btfss	status,2,c
  2724  000FC2  D00A               	goto	l3732
  2725                           
  2726                           ; BSR set to: 0
  2727  000FC4  0E00               	movlw	0
  2728  000FC6  0100               	movlb	0	; () banked
  2729  000FC8  6FCE               	movwf	?___ftdiv& (0+255),b
  2730  000FCA  0E00               	movlw	0
  2731  000FCC  0100               	movlb	0	; () banked
  2732  000FCE  6FCF               	movwf	(?___ftdiv+1)& (0+255),b
  2733  000FD0  0E00               	movlw	0
  2734  000FD2  0100               	movlb	0	; () banked
  2735  000FD4  6FD0               	movwf	(?___ftdiv+2)& (0+255),b
  2736                           
  2737                           ; BSR set to: 0
  2738  000FD6  0012               	return	
  2739  000FD8                     l3732:
  2740                           
  2741                           ; BSR set to: 0
  2742  000FD8  0E00               	movlw	0
  2743  000FDA  0100               	movlb	0	; () banked
  2744  000FDC  6FD8               	movwf	___ftdiv@f3& (0+255),b
  2745  000FDE  0E00               	movlw	0
  2746  000FE0  0100               	movlb	0	; () banked
  2747  000FE2  6FD9               	movwf	(___ftdiv@f3+1)& (0+255),b
  2748  000FE4  0E00               	movlw	0
  2749  000FE6  0100               	movlb	0	; () banked
  2750  000FE8  6FDA               	movwf	(___ftdiv@f3+2)& (0+255),b
  2751                           
  2752                           ; BSR set to: 0
  2753  000FEA  0100               	movlb	0	; () banked
  2754  000FEC  51DC               	movf	___ftdiv@sign& (0+255),w,b
  2755  000FEE  0F89               	addlw	137
  2756  000FF0  0100               	movlb	0	; () banked
  2757  000FF2  5FDB               	subwf	___ftdiv@exp& (0+255),f,b
  2758                           
  2759                           ; BSR set to: 0
  2760  000FF4  C0D0  F0DC         	movff	___ftdiv@f1+2,___ftdiv@sign
  2761                           
  2762                           ; BSR set to: 0
  2763  000FF8  0100               	movlb	0	; () banked
  2764  000FFA  51D3               	movf	(___ftdiv@f2+2)& (0+255),w,b
  2765  000FFC  0100               	movlb	0	; () banked
  2766  000FFE  1BDC               	xorwf	___ftdiv@sign& (0+255),f,b
  2767                           
  2768                           ; BSR set to: 0
  2769  001000  0E80               	movlw	128
  2770  001002  0100               	movlb	0	; () banked
  2771  001004  17DC               	andwf	___ftdiv@sign& (0+255),f,b
  2772                           
  2773                           ; BSR set to: 0
  2774  001006  0100               	movlb	0	; () banked
  2775  001008  8FCF               	bsf	(___ftdiv@f1+1)& (0+255),7,b
  2776                           
  2777                           ; BSR set to: 0
  2778  00100A  0EFF               	movlw	255
  2779  00100C  0100               	movlb	0	; () banked
  2780  00100E  17CE               	andwf	___ftdiv@f1& (0+255),f,b
  2781  001010  0EFF               	movlw	255
  2782  001012  0100               	movlb	0	; () banked
  2783  001014  17CF               	andwf	(___ftdiv@f1+1)& (0+255),f,b
  2784  001016  0E00               	movlw	0
  2785  001018  0100               	movlb	0	; () banked
  2786  00101A  17D0               	andwf	(___ftdiv@f1+2)& (0+255),f,b
  2787                           
  2788                           ; BSR set to: 0
  2789  00101C  0100               	movlb	0	; () banked
  2790  00101E  8FD2               	bsf	(___ftdiv@f2+1)& (0+255),7,b
  2791                           
  2792                           ; BSR set to: 0
  2793  001020  0EFF               	movlw	255
  2794  001022  0100               	movlb	0	; () banked
  2795  001024  17D1               	andwf	___ftdiv@f2& (0+255),f,b
  2796  001026  0EFF               	movlw	255
  2797  001028  0100               	movlb	0	; () banked
  2798  00102A  17D2               	andwf	(___ftdiv@f2+1)& (0+255),f,b
  2799  00102C  0E00               	movlw	0
  2800  00102E  0100               	movlb	0	; () banked
  2801  001030  17D3               	andwf	(___ftdiv@f2+2)& (0+255),f,b
  2802                           
  2803                           ; BSR set to: 0
  2804  001032  0E18               	movlw	24
  2805  001034  0100               	movlb	0	; () banked
  2806  001036  6FD7               	movwf	___ftdiv@cntr& (0+255),b
  2807  001038                     l3752:
  2808                           
  2809                           ; BSR set to: 0
  2810  001038  0100               	movlb	0	; () banked
  2811  00103A  90D8               	bcf	status,0,c
  2812  00103C  37D8               	rlcf	___ftdiv@f3& (0+255),f,b
  2813  00103E  37D9               	rlcf	(___ftdiv@f3+1)& (0+255),f,b
  2814  001040  37DA               	rlcf	(___ftdiv@f3+2)& (0+255),f,b
  2815                           
  2816                           ; BSR set to: 0
  2817  001042  0100               	movlb	0	; () banked
  2818  001044  51D1               	movf	___ftdiv@f2& (0+255),w,b
  2819  001046  0100               	movlb	0	; () banked
  2820  001048  5DCE               	subwf	___ftdiv@f1& (0+255),w,b
  2821  00104A  0100               	movlb	0	; () banked
  2822  00104C  51D2               	movf	(___ftdiv@f2+1)& (0+255),w,b
  2823  00104E  0100               	movlb	0	; () banked
  2824  001050  59CF               	subwfb	(___ftdiv@f1+1)& (0+255),w,b
  2825  001052  0100               	movlb	0	; () banked
  2826  001054  51D3               	movf	(___ftdiv@f2+2)& (0+255),w,b
  2827  001056  0100               	movlb	0	; () banked
  2828  001058  59D0               	subwfb	(___ftdiv@f1+2)& (0+255),w,b
  2829  00105A  A0D8               	btfss	status,0,c
  2830  00105C  D00E               	goto	l1585
  2831                           
  2832                           ; BSR set to: 0
  2833  00105E  0100               	movlb	0	; () banked
  2834  001060  51D1               	movf	___ftdiv@f2& (0+255),w,b
  2835  001062  0100               	movlb	0	; () banked
  2836  001064  5FCE               	subwf	___ftdiv@f1& (0+255),f,b
  2837  001066  0100               	movlb	0	; () banked
  2838  001068  51D2               	movf	(___ftdiv@f2+1)& (0+255),w,b
  2839  00106A  0100               	movlb	0	; () banked
  2840  00106C  5BCF               	subwfb	(___ftdiv@f1+1)& (0+255),f,b
  2841  00106E  0100               	movlb	0	; () banked
  2842  001070  51D3               	movf	(___ftdiv@f2+2)& (0+255),w,b
  2843  001072  0100               	movlb	0	; () banked
  2844  001074  5BD0               	subwfb	(___ftdiv@f1+2)& (0+255),f,b
  2845                           
  2846                           ; BSR set to: 0
  2847  001076  0100               	movlb	0	; () banked
  2848  001078  81D8               	bsf	___ftdiv@f3& (0+255),0,b
  2849  00107A                     l1585:
  2850                           
  2851                           ; BSR set to: 0
  2852  00107A  0100               	movlb	0	; () banked
  2853  00107C  90D8               	bcf	status,0,c
  2854  00107E  37CE               	rlcf	___ftdiv@f1& (0+255),f,b
  2855  001080  37CF               	rlcf	(___ftdiv@f1+1)& (0+255),f,b
  2856  001082  37D0               	rlcf	(___ftdiv@f1+2)& (0+255),f,b
  2857                           
  2858                           ; BSR set to: 0
  2859  001084  0100               	movlb	0	; () banked
  2860  001086  2FD7               	decfsz	___ftdiv@cntr& (0+255),f,b
  2861  001088  D7D7               	goto	l3752
  2862                           
  2863                           ; BSR set to: 0
  2864                           
  2865                           ; BSR set to: 0
  2866  00108A  C0D8  F0BA         	movff	___ftdiv@f3,___ftpack@arg
  2867  00108E  C0D9  F0BB         	movff	___ftdiv@f3+1,___ftpack@arg+1
  2868  001092  C0DA  F0BC         	movff	___ftdiv@f3+2,___ftpack@arg+2
  2869  001096  C0DB  F0BD         	movff	___ftdiv@exp,___ftpack@exp
  2870  00109A  C0DC  F0BE         	movff	___ftdiv@sign,___ftpack@sign
  2871  00109E  EC8E  F009         	call	___ftpack	;wreg free
  2872  0010A2  C0BA  F0CE         	movff	?___ftpack,?___ftdiv
  2873  0010A6  C0BB  F0CF         	movff	?___ftpack+1,?___ftdiv+1
  2874  0010AA  C0BC  F0D0         	movff	?___ftpack+2,?___ftdiv+2
  2875  0010AE  0012               	return	
  2876  0010B0                     __end_of___ftdiv:
  2877                           	opt stack 0
  2878                           tblptru	equ	0xFF8
  2879                           tblptrh	equ	0xFF7
  2880                           tblptrl	equ	0xFF6
  2881                           tablat	equ	0xFF5
  2882                           intcon	equ	0xFF2
  2883                           postinc0	equ	0xFEE
  2884                           wreg	equ	0xFE8
  2885                           postdec1	equ	0xFE5
  2886                           fsr1l	equ	0xFE1
  2887                           status	equ	0xFD8
  2888                           
  2889 ;; *************** function ___ftadd *****************
  2890 ;; Defined at:
  2891 ;;		line 86 in file "C:\Program Files (x86)\Microchip\xc8\v1.38\sources\common\ftadd.c"
  2892 ;; Parameters:    Size  Location     Type
  2893 ;;  f1              3    8[BANK0 ] float 
  2894 ;;  f2              3   11[BANK0 ] float 
  2895 ;; Auto vars:     Size  Location     Type
  2896 ;;  exp1            1   19[BANK0 ] unsigned char 
  2897 ;;  exp2            1   18[BANK0 ] unsigned char 
  2898 ;;  sign            1   17[BANK0 ] unsigned char 
  2899 ;; Return value:  Size  Location     Type
  2900 ;;                  3    8[BANK0 ] float 
  2901 ;; Registers used:
  2902 ;;		wreg, status,2, status,0, cstack
  2903 ;; Tracked objects:
  2904 ;;		On entry : 0/0
  2905 ;;		On exit  : 0/0
  2906 ;;		Unchanged: 0/0
  2907 ;; Data sizes:     COMRAM   BANK0   BANK1   BANK2
  2908 ;;      Params:         0       6       0       0
  2909 ;;      Locals:         0       3       0       0
  2910 ;;      Temps:          0       3       0       0
  2911 ;;      Totals:         0      12       0       0
  2912 ;;Total ram usage:       12 bytes
  2913 ;; Hardware stack levels used:    1
  2914 ;; Hardware stack levels required when called:    6
  2915 ;; This function calls:
  2916 ;;		___ftpack
  2917 ;; This function is called by:
  2918 ;;		_main
  2919 ;;		_vDisplayAscii
  2920 ;; This function uses a non-reentrant model
  2921 ;;
  2922                           
  2923                           	psect	text8
  2924  0009F2                     __ptext8:
  2925                           	opt stack 0
  2926  0009F2                     ___ftadd:
  2927                           	opt stack 24
  2928                           
  2929                           ;incstack = 0
  2930  0009F2  C0C4  F0C8         	movff	___ftadd@f1+2,??___ftadd
  2931  0009F6  0100               	movlb	0	; () banked
  2932  0009F8  6BC9               	clrf	(??___ftadd+1)& (0+255),b
  2933  0009FA  6BCA               	clrf	(??___ftadd+2)& (0+255),b
  2934  0009FC  0100               	movlb	0	; () banked
  2935  0009FE  35C3               	rlcf	(___ftadd@f1+1)& (0+255),w,b
  2936  000A00  0100               	movlb	0	; () banked
  2937  000A02  37C8               	rlcf	??___ftadd& (0+255),f,b
  2938  000A04  E301               	bnc	u3111
  2939  000A06  81C9               	bsf	(??___ftadd+1)& (0+255),0,b
  2940  000A08                     u3111:
  2941  000A08  0100               	movlb	0	; () banked
  2942  000A0A  51C8               	movf	??___ftadd& (0+255),w,b
  2943  000A0C  0100               	movlb	0	; () banked
  2944  000A0E  6FCD               	movwf	___ftadd@exp1& (0+255),b
  2945  000A10  C0C7  F0C8         	movff	___ftadd@f2+2,??___ftadd
  2946  000A14  0100               	movlb	0	; () banked
  2947  000A16  6BC9               	clrf	(??___ftadd+1)& (0+255),b
  2948  000A18  6BCA               	clrf	(??___ftadd+2)& (0+255),b
  2949  000A1A  0100               	movlb	0	; () banked
  2950  000A1C  35C6               	rlcf	(___ftadd@f2+1)& (0+255),w,b
  2951  000A1E  0100               	movlb	0	; () banked
  2952  000A20  37C8               	rlcf	??___ftadd& (0+255),f,b
  2953  000A22  E301               	bnc	u3121
  2954  000A24  81C9               	bsf	(??___ftadd+1)& (0+255),0,b
  2955  000A26                     u3121:
  2956  000A26  0100               	movlb	0	; () banked
  2957  000A28  51C8               	movf	??___ftadd& (0+255),w,b
  2958  000A2A  0100               	movlb	0	; () banked
  2959  000A2C  6FCC               	movwf	___ftadd@exp2& (0+255),b
  2960                           
  2961                           ; BSR set to: 0
  2962  000A2E  0100               	movlb	0	; () banked
  2963  000A30  51CD               	movf	___ftadd@exp1& (0+255),w,b
  2964  000A32  0100               	movlb	0	; () banked
  2965  000A34  B4D8               	btfsc	status,2,c
  2966  000A36  D011               	goto	l1550
  2967                           
  2968                           ; BSR set to: 0
  2969  000A38  0100               	movlb	0	; () banked
  2970  000A3A  51CC               	movf	___ftadd@exp2& (0+255),w,b
  2971  000A3C  0100               	movlb	0	; () banked
  2972  000A3E  5DCD               	subwf	___ftadd@exp1& (0+255),w,b
  2973  000A40  B0D8               	btfsc	status,0,c
  2974  000A42  D012               	goto	l3658
  2975                           
  2976                           ; BSR set to: 0
  2977  000A44  0100               	movlb	0	; () banked
  2978  000A46  51CD               	movf	___ftadd@exp1& (0+255),w,b
  2979  000A48  0800               	sublw	0
  2980  000A4A  0100               	movlb	0	; () banked
  2981  000A4C  25CC               	addwf	___ftadd@exp2& (0+255),w,b
  2982  000A4E  0100               	movlb	0	; () banked
  2983  000A50  6FC8               	movwf	??___ftadd& (0+255),b
  2984  000A52  0E18               	movlw	24
  2985  000A54  0100               	movlb	0	; () banked
  2986  000A56  65C8               	cpfsgt	??___ftadd& (0+255),b
  2987  000A58  D007               	goto	l3658
  2988  000A5A                     l1550:
  2989                           
  2990                           ; BSR set to: 0
  2991  000A5A  C0C5  F0C2         	movff	___ftadd@f2,?___ftadd
  2992  000A5E  C0C6  F0C3         	movff	___ftadd@f2+1,?___ftadd+1
  2993  000A62  C0C7  F0C4         	movff	___ftadd@f2+2,?___ftadd+2
  2994  000A66  0012               	return	
  2995  000A68                     l3658:
  2996                           
  2997                           ; BSR set to: 0
  2998  000A68  0100               	movlb	0	; () banked
  2999  000A6A  51CC               	movf	___ftadd@exp2& (0+255),w,b
  3000  000A6C  0100               	movlb	0	; () banked
  3001  000A6E  B4D8               	btfsc	status,2,c
  3002  000A70  D011               	goto	l1554
  3003                           
  3004                           ; BSR set to: 0
  3005  000A72  0100               	movlb	0	; () banked
  3006  000A74  51CD               	movf	___ftadd@exp1& (0+255),w,b
  3007  000A76  0100               	movlb	0	; () banked
  3008  000A78  5DCC               	subwf	___ftadd@exp2& (0+255),w,b
  3009  000A7A  B0D8               	btfsc	status,0,c
  3010  000A7C  D012               	goto	l3664
  3011                           
  3012                           ; BSR set to: 0
  3013  000A7E  0100               	movlb	0	; () banked
  3014  000A80  51CC               	movf	___ftadd@exp2& (0+255),w,b
  3015  000A82  0800               	sublw	0
  3016  000A84  0100               	movlb	0	; () banked
  3017  000A86  25CD               	addwf	___ftadd@exp1& (0+255),w,b
  3018  000A88  0100               	movlb	0	; () banked
  3019  000A8A  6FC8               	movwf	??___ftadd& (0+255),b
  3020  000A8C  0E18               	movlw	24
  3021  000A8E  0100               	movlb	0	; () banked
  3022  000A90  65C8               	cpfsgt	??___ftadd& (0+255),b
  3023  000A92  D007               	goto	l3664
  3024  000A94                     l1554:
  3025                           
  3026                           ; BSR set to: 0
  3027  000A94  C0C2  F0C2         	movff	___ftadd@f1,?___ftadd
  3028  000A98  C0C3  F0C3         	movff	___ftadd@f1+1,?___ftadd+1
  3029  000A9C  C0C4  F0C4         	movff	___ftadd@f1+2,?___ftadd+2
  3030  000AA0  0012               	return	
  3031  000AA2                     l3664:
  3032                           
  3033                           ; BSR set to: 0
  3034  000AA2  0E06               	movlw	6
  3035  000AA4  0100               	movlb	0	; () banked
  3036  000AA6  6FCB               	movwf	___ftadd@sign& (0+255),b
  3037                           
  3038                           ; BSR set to: 0
  3039  000AA8  0100               	movlb	0	; () banked
  3040  000AAA  AFC4               	btfss	(___ftadd@f1+2)& (0+255),7,b
  3041  000AAC  D002               	goto	l3670
  3042                           
  3043                           ; BSR set to: 0
  3044  000AAE  0100               	movlb	0	; () banked
  3045  000AB0  8FCB               	bsf	___ftadd@sign& (0+255),7,b
  3046  000AB2                     l3670:
  3047                           
  3048                           ; BSR set to: 0
  3049  000AB2  0100               	movlb	0	; () banked
  3050  000AB4  AFC7               	btfss	(___ftadd@f2+2)& (0+255),7,b
  3051  000AB6  D002               	goto	l1556
  3052                           
  3053                           ; BSR set to: 0
  3054  000AB8  0100               	movlb	0	; () banked
  3055  000ABA  8DCB               	bsf	___ftadd@sign& (0+255),6,b
  3056  000ABC                     l1556:
  3057                           
  3058                           ; BSR set to: 0
  3059  000ABC  0100               	movlb	0	; () banked
  3060  000ABE  8FC3               	bsf	(___ftadd@f1+1)& (0+255),7,b
  3061                           
  3062                           ; BSR set to: 0
  3063  000AC0  0EFF               	movlw	255
  3064  000AC2  0100               	movlb	0	; () banked
  3065  000AC4  17C2               	andwf	___ftadd@f1& (0+255),f,b
  3066  000AC6  0EFF               	movlw	255
  3067  000AC8  0100               	movlb	0	; () banked
  3068  000ACA  17C3               	andwf	(___ftadd@f1+1)& (0+255),f,b
  3069  000ACC  0E00               	movlw	0
  3070  000ACE  0100               	movlb	0	; () banked
  3071  000AD0  17C4               	andwf	(___ftadd@f1+2)& (0+255),f,b
  3072  000AD2  0100               	movlb	0	; () banked
  3073  000AD4  8FC6               	bsf	(___ftadd@f2+1)& (0+255),7,b
  3074                           
  3075                           ; BSR set to: 0
  3076  000AD6  0EFF               	movlw	255
  3077  000AD8  0100               	movlb	0	; () banked
  3078  000ADA  17C5               	andwf	___ftadd@f2& (0+255),f,b
  3079  000ADC  0EFF               	movlw	255
  3080  000ADE  0100               	movlb	0	; () banked
  3081  000AE0  17C6               	andwf	(___ftadd@f2+1)& (0+255),f,b
  3082  000AE2  0E00               	movlw	0
  3083  000AE4  0100               	movlb	0	; () banked
  3084  000AE6  17C7               	andwf	(___ftadd@f2+2)& (0+255),f,b
  3085                           
  3086                           ; BSR set to: 0
  3087  000AE8  0100               	movlb	0	; () banked
  3088  000AEA  51CC               	movf	___ftadd@exp2& (0+255),w,b
  3089  000AEC  0100               	movlb	0	; () banked
  3090  000AEE  5DCD               	subwf	___ftadd@exp1& (0+255),w,b
  3091  000AF0  B0D8               	btfsc	status,0,c
  3092  000AF2  D025               	goto	l3690
  3093  000AF4                     l3680:
  3094                           
  3095                           ; BSR set to: 0
  3096  000AF4  0100               	movlb	0	; () banked
  3097  000AF6  90D8               	bcf	status,0,c
  3098  000AF8  37C5               	rlcf	___ftadd@f2& (0+255),f,b
  3099  000AFA  37C6               	rlcf	(___ftadd@f2+1)& (0+255),f,b
  3100  000AFC  37C7               	rlcf	(___ftadd@f2+2)& (0+255),f,b
  3101  000AFE  0100               	movlb	0	; () banked
  3102  000B00  07CC               	decf	___ftadd@exp2& (0+255),f,b
  3103                           
  3104                           ; BSR set to: 0
  3105  000B02  0100               	movlb	0	; () banked
  3106  000B04  51CD               	movf	___ftadd@exp1& (0+255),w,b
  3107  000B06  0100               	movlb	0	; () banked
  3108  000B08  19CC               	xorwf	___ftadd@exp2& (0+255),w,b
  3109  000B0A  B4D8               	btfsc	status,2,c
  3110  000B0C  D011               	goto	l3688
  3111                           
  3112                           ; BSR set to: 0
  3113  000B0E  0100               	movlb	0	; () banked
  3114  000B10  07CB               	decf	___ftadd@sign& (0+255),f,b
  3115  000B12  C0CB  F0C8         	movff	___ftadd@sign,??___ftadd
  3116  000B16  0E07               	movlw	7
  3117  000B18  0100               	movlb	0	; () banked
  3118  000B1A  17C8               	andwf	??___ftadd& (0+255),f,b
  3119  000B1C  B4D8               	btfsc	status,2,c
  3120  000B1E  D008               	goto	l3688
  3121  000B20  D7E9               	goto	l3680
  3122  000B22                     l3686:
  3123                           
  3124                           ; BSR set to: 0
  3125  000B22  0100               	movlb	0	; () banked
  3126  000B24  90D8               	bcf	status,0,c
  3127  000B26  33C4               	rrcf	(___ftadd@f1+2)& (0+255),f,b
  3128  000B28  33C3               	rrcf	(___ftadd@f1+1)& (0+255),f,b
  3129  000B2A  33C2               	rrcf	___ftadd@f1& (0+255),f,b
  3130  000B2C  0100               	movlb	0	; () banked
  3131  000B2E  2BCD               	incf	___ftadd@exp1& (0+255),f,b
  3132  000B30                     l3688:
  3133                           
  3134                           ; BSR set to: 0
  3135  000B30  0100               	movlb	0	; () banked
  3136  000B32  51CC               	movf	___ftadd@exp2& (0+255),w,b
  3137  000B34  0100               	movlb	0	; () banked
  3138  000B36  19CD               	xorwf	___ftadd@exp1& (0+255),w,b
  3139  000B38  B4D8               	btfsc	status,2,c
  3140  000B3A  D02B               	goto	l1565
  3141  000B3C  D7F2               	goto	l3686
  3142  000B3E                     l3690:
  3143                           
  3144                           ; BSR set to: 0
  3145  000B3E  0100               	movlb	0	; () banked
  3146  000B40  51CD               	movf	___ftadd@exp1& (0+255),w,b
  3147  000B42  0100               	movlb	0	; () banked
  3148  000B44  5DCC               	subwf	___ftadd@exp2& (0+255),w,b
  3149  000B46  B0D8               	btfsc	status,0,c
  3150  000B48  D024               	goto	l1565
  3151  000B4A                     l3692:
  3152                           
  3153                           ; BSR set to: 0
  3154  000B4A  0100               	movlb	0	; () banked
  3155  000B4C  90D8               	bcf	status,0,c
  3156  000B4E  37C2               	rlcf	___ftadd@f1& (0+255),f,b
  3157  000B50  37C3               	rlcf	(___ftadd@f1+1)& (0+255),f,b
  3158  000B52  37C4               	rlcf	(___ftadd@f1+2)& (0+255),f,b
  3159  000B54  0100               	movlb	0	; () banked
  3160  000B56  07CD               	decf	___ftadd@exp1& (0+255),f,b
  3161                           
  3162                           ; BSR set to: 0
  3163  000B58  0100               	movlb	0	; () banked
  3164  000B5A  51CD               	movf	___ftadd@exp1& (0+255),w,b
  3165  000B5C  0100               	movlb	0	; () banked
  3166  000B5E  19CC               	xorwf	___ftadd@exp2& (0+255),w,b
  3167  000B60  B4D8               	btfsc	status,2,c
  3168  000B62  D011               	goto	l3700
  3169                           
  3170                           ; BSR set to: 0
  3171  000B64  0100               	movlb	0	; () banked
  3172  000B66  07CB               	decf	___ftadd@sign& (0+255),f,b
  3173  000B68  C0CB  F0C8         	movff	___ftadd@sign,??___ftadd
  3174  000B6C  0E07               	movlw	7
  3175  000B6E  0100               	movlb	0	; () banked
  3176  000B70  17C8               	andwf	??___ftadd& (0+255),f,b
  3177  000B72  B4D8               	btfsc	status,2,c
  3178  000B74  D008               	goto	l3700
  3179  000B76  D7E9               	goto	l3692
  3180  000B78                     l3698:
  3181                           
  3182                           ; BSR set to: 0
  3183  000B78  0100               	movlb	0	; () banked
  3184  000B7A  90D8               	bcf	status,0,c
  3185  000B7C  33C7               	rrcf	(___ftadd@f2+2)& (0+255),f,b
  3186  000B7E  33C6               	rrcf	(___ftadd@f2+1)& (0+255),f,b
  3187  000B80  33C5               	rrcf	___ftadd@f2& (0+255),f,b
  3188  000B82  0100               	movlb	0	; () banked
  3189  000B84  2BCC               	incf	___ftadd@exp2& (0+255),f,b
  3190  000B86                     l3700:
  3191                           
  3192                           ; BSR set to: 0
  3193  000B86  0100               	movlb	0	; () banked
  3194  000B88  51CC               	movf	___ftadd@exp2& (0+255),w,b
  3195  000B8A  0100               	movlb	0	; () banked
  3196  000B8C  19CD               	xorwf	___ftadd@exp1& (0+255),w,b
  3197  000B8E  A4D8               	btfss	status,2,c
  3198  000B90  D7F3               	goto	l3698
  3199  000B92                     l1565:
  3200                           
  3201                           ; BSR set to: 0
  3202  000B92  0100               	movlb	0	; () banked
  3203  000B94  AFCB               	btfss	___ftadd@sign& (0+255),7,b
  3204  000B96  D012               	goto	l1574
  3205                           
  3206                           ; BSR set to: 0
  3207  000B98  0EFF               	movlw	255
  3208  000B9A  0100               	movlb	0	; () banked
  3209  000B9C  1BC2               	xorwf	___ftadd@f1& (0+255),f,b
  3210  000B9E  0EFF               	movlw	255
  3211  000BA0  0100               	movlb	0	; () banked
  3212  000BA2  1BC3               	xorwf	(___ftadd@f1+1)& (0+255),f,b
  3213  000BA4  0EFF               	movlw	255
  3214  000BA6  0100               	movlb	0	; () banked
  3215  000BA8  1BC4               	xorwf	(___ftadd@f1+2)& (0+255),f,b
  3216  000BAA  0E01               	movlw	1
  3217  000BAC  0100               	movlb	0	; () banked
  3218  000BAE  27C2               	addwf	___ftadd@f1& (0+255),f,b
  3219  000BB0  0E00               	movlw	0
  3220  000BB2  0100               	movlb	0	; () banked
  3221  000BB4  23C3               	addwfc	(___ftadd@f1+1)& (0+255),f,b
  3222  000BB6  0E00               	movlw	0
  3223  000BB8  0100               	movlb	0	; () banked
  3224  000BBA  23C4               	addwfc	(___ftadd@f1+2)& (0+255),f,b
  3225  000BBC                     l1574:
  3226                           
  3227                           ; BSR set to: 0
  3228  000BBC  0100               	movlb	0	; () banked
  3229  000BBE  ADCB               	btfss	___ftadd@sign& (0+255),6,b
  3230  000BC0  D012               	goto	l3706
  3231                           
  3232                           ; BSR set to: 0
  3233  000BC2  0EFF               	movlw	255
  3234  000BC4  0100               	movlb	0	; () banked
  3235  000BC6  1BC5               	xorwf	___ftadd@f2& (0+255),f,b
  3236  000BC8  0EFF               	movlw	255
  3237  000BCA  0100               	movlb	0	; () banked
  3238  000BCC  1BC6               	xorwf	(___ftadd@f2+1)& (0+255),f,b
  3239  000BCE  0EFF               	movlw	255
  3240  000BD0  0100               	movlb	0	; () banked
  3241  000BD2  1BC7               	xorwf	(___ftadd@f2+2)& (0+255),f,b
  3242  000BD4  0E01               	movlw	1
  3243  000BD6  0100               	movlb	0	; () banked
  3244  000BD8  27C5               	addwf	___ftadd@f2& (0+255),f,b
  3245  000BDA  0E00               	movlw	0
  3246  000BDC  0100               	movlb	0	; () banked
  3247  000BDE  23C6               	addwfc	(___ftadd@f2+1)& (0+255),f,b
  3248  000BE0  0E00               	movlw	0
  3249  000BE2  0100               	movlb	0	; () banked
  3250  000BE4  23C7               	addwfc	(___ftadd@f2+2)& (0+255),f,b
  3251  000BE6                     l3706:
  3252                           
  3253                           ; BSR set to: 0
  3254  000BE6  0E00               	movlw	0
  3255  000BE8  0100               	movlb	0	; () banked
  3256  000BEA  6FCB               	movwf	___ftadd@sign& (0+255),b
  3257                           
  3258                           ; BSR set to: 0
  3259  000BEC  0100               	movlb	0	; () banked
  3260  000BEE  51C2               	movf	___ftadd@f1& (0+255),w,b
  3261  000BF0  0100               	movlb	0	; () banked
  3262  000BF2  27C5               	addwf	___ftadd@f2& (0+255),f,b
  3263  000BF4  0100               	movlb	0	; () banked
  3264  000BF6  51C3               	movf	(___ftadd@f1+1)& (0+255),w,b
  3265  000BF8  0100               	movlb	0	; () banked
  3266  000BFA  23C6               	addwfc	(___ftadd@f2+1)& (0+255),f,b
  3267  000BFC  0100               	movlb	0	; () banked
  3268  000BFE  51C4               	movf	(___ftadd@f1+2)& (0+255),w,b
  3269  000C00  0100               	movlb	0	; () banked
  3270  000C02  23C7               	addwfc	(___ftadd@f2+2)& (0+255),f,b
  3271                           
  3272                           ; BSR set to: 0
  3273  000C04  0100               	movlb	0	; () banked
  3274  000C06  AFC7               	btfss	(___ftadd@f2+2)& (0+255),7,b
  3275  000C08  D015               	goto	l3716
  3276                           
  3277                           ; BSR set to: 0
  3278  000C0A  0EFF               	movlw	255
  3279  000C0C  0100               	movlb	0	; () banked
  3280  000C0E  1BC5               	xorwf	___ftadd@f2& (0+255),f,b
  3281  000C10  0EFF               	movlw	255
  3282  000C12  0100               	movlb	0	; () banked
  3283  000C14  1BC6               	xorwf	(___ftadd@f2+1)& (0+255),f,b
  3284  000C16  0EFF               	movlw	255
  3285  000C18  0100               	movlb	0	; () banked
  3286  000C1A  1BC7               	xorwf	(___ftadd@f2+2)& (0+255),f,b
  3287  000C1C  0E01               	movlw	1
  3288  000C1E  0100               	movlb	0	; () banked
  3289  000C20  27C5               	addwf	___ftadd@f2& (0+255),f,b
  3290  000C22  0E00               	movlw	0
  3291  000C24  0100               	movlb	0	; () banked
  3292  000C26  23C6               	addwfc	(___ftadd@f2+1)& (0+255),f,b
  3293  000C28  0E00               	movlw	0
  3294  000C2A  0100               	movlb	0	; () banked
  3295  000C2C  23C7               	addwfc	(___ftadd@f2+2)& (0+255),f,b
  3296                           
  3297                           ; BSR set to: 0
  3298  000C2E  0E01               	movlw	1
  3299  000C30  0100               	movlb	0	; () banked
  3300  000C32  6FCB               	movwf	___ftadd@sign& (0+255),b
  3301  000C34                     l3716:
  3302                           
  3303                           ; BSR set to: 0
  3304  000C34  C0C5  F0BA         	movff	___ftadd@f2,___ftpack@arg
  3305  000C38  C0C6  F0BB         	movff	___ftadd@f2+1,___ftpack@arg+1
  3306  000C3C  C0C7  F0BC         	movff	___ftadd@f2+2,___ftpack@arg+2
  3307  000C40  C0CD  F0BD         	movff	___ftadd@exp1,___ftpack@exp
  3308  000C44  C0CB  F0BE         	movff	___ftadd@sign,___ftpack@sign
  3309  000C48  EC8E  F009         	call	___ftpack	;wreg free
  3310  000C4C  C0BA  F0C2         	movff	?___ftpack,?___ftadd
  3311  000C50  C0BB  F0C3         	movff	?___ftpack+1,?___ftadd+1
  3312  000C54  C0BC  F0C4         	movff	?___ftpack+2,?___ftadd+2
  3313  000C58  0012               	return	
  3314  000C5A                     __end_of___ftadd:
  3315                           	opt stack 0
  3316                           tblptru	equ	0xFF8
  3317                           tblptrh	equ	0xFF7
  3318                           tblptrl	equ	0xFF6
  3319                           tablat	equ	0xFF5
  3320                           intcon	equ	0xFF2
  3321                           postinc0	equ	0xFEE
  3322                           wreg	equ	0xFE8
  3323                           postdec1	equ	0xFE5
  3324                           fsr1l	equ	0xFE1
  3325                           status	equ	0xFD8
  3326                           
  3327 ;; *************** function ___ftpack *****************
  3328 ;; Defined at:
  3329 ;;		line 62 in file "C:\Program Files (x86)\Microchip\xc8\v1.38\sources\common\float.c"
  3330 ;; Parameters:    Size  Location     Type
  3331 ;;  arg             3    0[BANK0 ] unsigned um
  3332 ;;  exp             1    3[BANK0 ] unsigned char 
  3333 ;;  sign            1    4[BANK0 ] unsigned char 
  3334 ;; Auto vars:     Size  Location     Type
  3335 ;;		None
  3336 ;; Return value:  Size  Location     Type
  3337 ;;                  3    0[BANK0 ] float 
  3338 ;; Registers used:
  3339 ;;		wreg, status,2, status,0
  3340 ;; Tracked objects:
  3341 ;;		On entry : 0/0
  3342 ;;		On exit  : 0/0
  3343 ;;		Unchanged: 0/0
  3344 ;; Data sizes:     COMRAM   BANK0   BANK1   BANK2
  3345 ;;      Params:         0       5       0       0
  3346 ;;      Locals:         0       0       0       0
  3347 ;;      Temps:          0       3       0       0
  3348 ;;      Totals:         0       8       0       0
  3349 ;;Total ram usage:        8 bytes
  3350 ;; Hardware stack levels used:    1
  3351 ;; Hardware stack levels required when called:    5
  3352 ;; This function calls:
  3353 ;;		Nothing
  3354 ;; This function is called by:
  3355 ;;		___ftadd
  3356 ;;		___ftdiv
  3357 ;;		___ftmul
  3358 ;;		___lwtoft
  3359 ;;		___awtoft
  3360 ;; This function uses a non-reentrant model
  3361 ;;
  3362                           
  3363                           	psect	text9
  3364  00131C                     __ptext9:
  3365                           	opt stack 0
  3366  00131C                     ___ftpack:
  3367                           	opt stack 24
  3368                           
  3369                           ;incstack = 0
  3370  00131C  0100               	movlb	0	; () banked
  3371  00131E  51BD               	movf	___ftpack@exp& (0+255),w,b
  3372  001320  0100               	movlb	0	; () banked
  3373  001322  B4D8               	btfsc	status,2,c
  3374  001324  D008               	goto	l3406
  3375                           
  3376                           ; BSR set to: 0
  3377  001326  0100               	movlb	0	; () banked
  3378  001328  51BA               	movf	___ftpack@arg& (0+255),w,b
  3379  00132A  0100               	movlb	0	; () banked
  3380  00132C  11BB               	iorwf	(___ftpack@arg+1)& (0+255),w,b
  3381  00132E  0100               	movlb	0	; () banked
  3382  001330  11BC               	iorwf	(___ftpack@arg+2)& (0+255),w,b
  3383  001332  A4D8               	btfss	status,2,c
  3384  001334  D011               	goto	l3412
  3385  001336                     l3406:
  3386                           
  3387                           ; BSR set to: 0
  3388  001336  0E00               	movlw	0
  3389  001338  0100               	movlb	0	; () banked
  3390  00133A  6FBA               	movwf	?___ftpack& (0+255),b
  3391  00133C  0E00               	movlw	0
  3392  00133E  0100               	movlb	0	; () banked
  3393  001340  6FBB               	movwf	(?___ftpack+1)& (0+255),b
  3394  001342  0E00               	movlw	0
  3395  001344  0100               	movlb	0	; () banked
  3396  001346  6FBC               	movwf	(?___ftpack+2)& (0+255),b
  3397                           
  3398                           ; BSR set to: 0
  3399  001348  0012               	return	
  3400  00134A                     l3410:
  3401                           
  3402                           ; BSR set to: 0
  3403  00134A  0100               	movlb	0	; () banked
  3404  00134C  2BBD               	incf	___ftpack@exp& (0+255),f,b
  3405  00134E  0100               	movlb	0	; () banked
  3406  001350  90D8               	bcf	status,0,c
  3407  001352  33BC               	rrcf	(___ftpack@arg+2)& (0+255),f,b
  3408  001354  33BB               	rrcf	(___ftpack@arg+1)& (0+255),f,b
  3409  001356  33BA               	rrcf	___ftpack@arg& (0+255),f,b
  3410  001358                     l3412:
  3411                           
  3412                           ; BSR set to: 0
  3413  001358  0E00               	movlw	0
  3414  00135A  0100               	movlb	0	; () banked
  3415  00135C  15BA               	andwf	___ftpack@arg& (0+255),w,b
  3416  00135E  0100               	movlb	0	; () banked
  3417  001360  6FBF               	movwf	??___ftpack& (0+255),b
  3418  001362  0E00               	movlw	0
  3419  001364  0100               	movlb	0	; () banked
  3420  001366  15BB               	andwf	(___ftpack@arg+1)& (0+255),w,b
  3421  001368  0100               	movlb	0	; () banked
  3422  00136A  6FC0               	movwf	(??___ftpack+1)& (0+255),b
  3423  00136C  0EFE               	movlw	254
  3424  00136E  0100               	movlb	0	; () banked
  3425  001370  15BC               	andwf	(___ftpack@arg+2)& (0+255),w,b
  3426  001372  0100               	movlb	0	; () banked
  3427  001374  6FC1               	movwf	(??___ftpack+2)& (0+255),b
  3428  001376  0100               	movlb	0	; () banked
  3429  001378  51BF               	movf	??___ftpack& (0+255),w,b
  3430  00137A  0100               	movlb	0	; () banked
  3431  00137C  11C0               	iorwf	(??___ftpack+1)& (0+255),w,b
  3432  00137E  0100               	movlb	0	; () banked
  3433  001380  11C1               	iorwf	(??___ftpack+2)& (0+255),w,b
  3434  001382  B4D8               	btfsc	status,2,c
  3435  001384  D011               	goto	l3418
  3436  001386  D7E1               	goto	l3410
  3437  001388                     l3414:
  3438                           
  3439                           ; BSR set to: 0
  3440  001388  0100               	movlb	0	; () banked
  3441  00138A  2BBD               	incf	___ftpack@exp& (0+255),f,b
  3442                           
  3443                           ; BSR set to: 0
  3444  00138C  0E01               	movlw	1
  3445  00138E  0100               	movlb	0	; () banked
  3446  001390  27BA               	addwf	___ftpack@arg& (0+255),f,b
  3447  001392  0E00               	movlw	0
  3448  001394  0100               	movlb	0	; () banked
  3449  001396  23BB               	addwfc	(___ftpack@arg+1)& (0+255),f,b
  3450  001398  0E00               	movlw	0
  3451  00139A  0100               	movlb	0	; () banked
  3452  00139C  23BC               	addwfc	(___ftpack@arg+2)& (0+255),f,b
  3453  00139E  0100               	movlb	0	; () banked
  3454  0013A0  90D8               	bcf	status,0,c
  3455  0013A2  33BC               	rrcf	(___ftpack@arg+2)& (0+255),f,b
  3456  0013A4  33BB               	rrcf	(___ftpack@arg+1)& (0+255),f,b
  3457  0013A6  33BA               	rrcf	___ftpack@arg& (0+255),f,b
  3458  0013A8                     l3418:
  3459                           
  3460                           ; BSR set to: 0
  3461  0013A8  0E00               	movlw	0
  3462  0013AA  0100               	movlb	0	; () banked
  3463  0013AC  15BA               	andwf	___ftpack@arg& (0+255),w,b
  3464  0013AE  0100               	movlb	0	; () banked
  3465  0013B0  6FBF               	movwf	??___ftpack& (0+255),b
  3466  0013B2  0E00               	movlw	0
  3467  0013B4  0100               	movlb	0	; () banked
  3468  0013B6  15BB               	andwf	(___ftpack@arg+1)& (0+255),w,b
  3469  0013B8  0100               	movlb	0	; () banked
  3470  0013BA  6FC0               	movwf	(??___ftpack+1)& (0+255),b
  3471  0013BC  0EFF               	movlw	255
  3472  0013BE  0100               	movlb	0	; () banked
  3473  0013C0  15BC               	andwf	(___ftpack@arg+2)& (0+255),w,b
  3474  0013C2  0100               	movlb	0	; () banked
  3475  0013C4  6FC1               	movwf	(??___ftpack+2)& (0+255),b
  3476  0013C6  0100               	movlb	0	; () banked
  3477  0013C8  51BF               	movf	??___ftpack& (0+255),w,b
  3478  0013CA  0100               	movlb	0	; () banked
  3479  0013CC  11C0               	iorwf	(??___ftpack+1)& (0+255),w,b
  3480  0013CE  0100               	movlb	0	; () banked
  3481  0013D0  11C1               	iorwf	(??___ftpack+2)& (0+255),w,b
  3482  0013D2  B4D8               	btfsc	status,2,c
  3483  0013D4  D008               	goto	l3422
  3484  0013D6  D7D8               	goto	l3414
  3485  0013D8                     l3420:
  3486                           
  3487                           ; BSR set to: 0
  3488  0013D8  0100               	movlb	0	; () banked
  3489  0013DA  07BD               	decf	___ftpack@exp& (0+255),f,b
  3490  0013DC  0100               	movlb	0	; () banked
  3491  0013DE  90D8               	bcf	status,0,c
  3492  0013E0  37BA               	rlcf	___ftpack@arg& (0+255),f,b
  3493  0013E2  37BB               	rlcf	(___ftpack@arg+1)& (0+255),f,b
  3494  0013E4  37BC               	rlcf	(___ftpack@arg+2)& (0+255),f,b
  3495  0013E6                     l3422:
  3496                           
  3497                           ; BSR set to: 0
  3498  0013E6  0100               	movlb	0	; () banked
  3499  0013E8  BFBB               	btfsc	(___ftpack@arg+1)& (0+255),7,b
  3500  0013EA  D004               	goto	l1527
  3501                           
  3502                           ; BSR set to: 0
  3503  0013EC  0E02               	movlw	2
  3504  0013EE  0100               	movlb	0	; () banked
  3505  0013F0  61BD               	cpfslt	___ftpack@exp& (0+255),b
  3506  0013F2  D7F2               	goto	l3420
  3507  0013F4                     l1527:
  3508                           
  3509                           ; BSR set to: 0
  3510  0013F4  0100               	movlb	0	; () banked
  3511  0013F6  B1BD               	btfsc	___ftpack@exp& (0+255),0,b
  3512  0013F8  D002               	goto	l3428
  3513                           
  3514                           ; BSR set to: 0
  3515  0013FA  0100               	movlb	0	; () banked
  3516  0013FC  9FBB               	bcf	(___ftpack@arg+1)& (0+255),7,b
  3517  0013FE                     l3428:
  3518                           
  3519                           ; BSR set to: 0
  3520  0013FE  0100               	movlb	0	; () banked
  3521  001400  90D8               	bcf	status,0,c
  3522  001402  33BD               	rrcf	___ftpack@exp& (0+255),f,b
  3523  001404  0100               	movlb	0	; () banked
  3524  001406  51BD               	movf	___ftpack@exp& (0+255),w,b
  3525  001408  0100               	movlb	0	; () banked
  3526  00140A  13BC               	iorwf	(___ftpack@arg+2)& (0+255),f,b
  3527                           
  3528                           ; BSR set to: 0
  3529  00140C  0100               	movlb	0	; () banked
  3530  00140E  51BE               	movf	___ftpack@sign& (0+255),w,b
  3531  001410  0100               	movlb	0	; () banked
  3532  001412  B4D8               	btfsc	status,2,c
  3533  001414  D002               	goto	l3434
  3534                           
  3535                           ; BSR set to: 0
  3536  001416  0100               	movlb	0	; () banked
  3537  001418  8FBC               	bsf	(___ftpack@arg+2)& (0+255),7,b
  3538  00141A                     l3434:
  3539                           
  3540                           ; BSR set to: 0
  3541  00141A  C0BA  F0BA         	movff	___ftpack@arg,?___ftpack
  3542  00141E  C0BB  F0BB         	movff	___ftpack@arg+1,?___ftpack+1
  3543  001422  C0BC  F0BC         	movff	___ftpack@arg+2,?___ftpack+2
  3544  001426  0012               	return	
  3545  001428                     __end_of___ftpack:
  3546                           	opt stack 0
  3547                           tblptru	equ	0xFF8
  3548                           tblptrh	equ	0xFF7
  3549                           tblptrl	equ	0xFF6
  3550                           tablat	equ	0xFF5
  3551                           intcon	equ	0xFF2
  3552                           postinc0	equ	0xFEE
  3553                           wreg	equ	0xFE8
  3554                           postdec1	equ	0xFE5
  3555                           fsr1l	equ	0xFE1
  3556                           status	equ	0xFD8
  3557                           
  3558 ;; *************** function _VFD_Current_INITIATE *****************
  3559 ;; Defined at:
  3560 ;;		line 16 in file "ADC.c"
  3561 ;; Parameters:    Size  Location     Type
  3562 ;;		None
  3563 ;; Auto vars:     Size  Location     Type
  3564 ;;		None
  3565 ;; Return value:  Size  Location     Type
  3566 ;;                  1    wreg      void 
  3567 ;; Registers used:
  3568 ;;		wreg, status,2
  3569 ;; Tracked objects:
  3570 ;;		On entry : 0/0
  3571 ;;		On exit  : 0/0
  3572 ;;		Unchanged: 0/0
  3573 ;; Data sizes:     COMRAM   BANK0   BANK1   BANK2
  3574 ;;      Params:         0       0       0       0
  3575 ;;      Locals:         0       0       0       0
  3576 ;;      Temps:          0       0       0       0
  3577 ;;      Totals:         0       0       0       0
  3578 ;;Total ram usage:        0 bytes
  3579 ;; Hardware stack levels used:    1
  3580 ;; Hardware stack levels required when called:    5
  3581 ;; This function calls:
  3582 ;;		Nothing
  3583 ;; This function is called by:
  3584 ;;		_main
  3585 ;; This function uses a non-reentrant model
  3586 ;;
  3587                           
  3588                           	psect	text10
  3589  001D12                     __ptext10:
  3590                           	opt stack 0
  3591  001D12                     _VFD_Current_INITIATE:
  3592                           	opt stack 25
  3593                           
  3594                           ;ADC.c: 18: ADCON1 = 0;
  3595                           
  3596                           ; BSR set to: 0
  3597                           ;incstack = 0
  3598  001D12  0E00               	movlw	0
  3599  001D14  6EC1               	movwf	4033,c	;volatile
  3600                           
  3601                           ;ADC.c: 19: ADCON3 = 0;
  3602  001D16  0E00               	movlw	0
  3603  001D18  6E9A               	movwf	3994,c	;volatile
  3604                           
  3605                           ;ADC.c: 20: ADCON2 = 0b00111101;
  3606  001D1A  0E3D               	movlw	61
  3607  001D1C  6EC0               	movwf	4032,c	;volatile
  3608                           
  3609                           ;ADC.c: 21: GASEL0 = 0;
  3610  001D1E  9099               	bcf	3993,0,c	;volatile
  3611                           
  3612                           ;ADC.c: 22: GASEL1 = 0;
  3613  001D20  9299               	bcf	3993,1,c	;volatile
  3614                           
  3615                           ;ADC.c: 23: GBSEL0 = 0;
  3616  001D22  9899               	bcf	3993,4,c	;volatile
  3617                           
  3618                           ;ADC.c: 24: GBSEL1 = 0;
  3619  001D24  9A99               	bcf	3993,5,c	;volatile
  3620                           
  3621                           ;ADC.c: 25: ANS0 = 1;
  3622  001D26  80B8               	bsf	4024,0,c	;volatile
  3623                           
  3624                           ;ADC.c: 26: ANS1 = 1;
  3625  001D28  82B8               	bsf	4024,1,c	;volatile
  3626  001D2A  0012               	return		;funcret
  3627  001D2C                     __end_of_VFD_Current_INITIATE:
  3628                           	opt stack 0
  3629                           tblptru	equ	0xFF8
  3630                           tblptrh	equ	0xFF7
  3631                           tblptrl	equ	0xFF6
  3632                           tablat	equ	0xFF5
  3633                           intcon	equ	0xFF2
  3634                           postinc0	equ	0xFEE
  3635                           wreg	equ	0xFE8
  3636                           postdec1	equ	0xFE5
  3637                           fsr1l	equ	0xFE1
  3638                           status	equ	0xFD8
  3639                           
  3640 ;; *************** function _VFD_CURRENT_ADC *****************
  3641 ;; Defined at:
  3642 ;;		line 40 in file "ADC.c"
  3643 ;; Parameters:    Size  Location     Type
  3644 ;;		None
  3645 ;; Auto vars:     Size  Location     Type
  3646 ;;		None
  3647 ;; Return value:  Size  Location     Type
  3648 ;;                  2    0[BANK0 ] unsigned int 
  3649 ;; Registers used:
  3650 ;;		wreg, status,2, status,0
  3651 ;; Tracked objects:
  3652 ;;		On entry : 0/0
  3653 ;;		On exit  : 0/0
  3654 ;;		Unchanged: 0/0
  3655 ;; Data sizes:     COMRAM   BANK0   BANK1   BANK2
  3656 ;;      Params:         0       2       0       0
  3657 ;;      Locals:         0       0       0       0
  3658 ;;      Temps:          0       2       0       0
  3659 ;;      Totals:         0       4       0       0
  3660 ;;Total ram usage:        4 bytes
  3661 ;; Hardware stack levels used:    1
  3662 ;; Hardware stack levels required when called:    5
  3663 ;; This function calls:
  3664 ;;		Nothing
  3665 ;; This function is called by:
  3666 ;;		_main
  3667 ;; This function uses a non-reentrant model
  3668 ;;
  3669                           
  3670                           	psect	text11
  3671  001BBC                     __ptext11:
  3672                           	opt stack 0
  3673  001BBC                     _VFD_CURRENT_ADC:
  3674                           	opt stack 25
  3675                           
  3676                           ;ADC.c: 42: ACSCH = 0;
  3677                           
  3678                           ;incstack = 0
  3679  001BBC  98C2               	bcf	4034,4,c	;volatile
  3680                           
  3681                           ;ADC.c: 43: ACMOD0 = 1;
  3682  001BBE  84C2               	bsf	4034,2,c	;volatile
  3683                           
  3684                           ;ADC.c: 44: ACMOD1 = 0;
  3685  001BC0  96C2               	bcf	4034,3,c	;volatile
  3686                           
  3687                           ;ADC.c: 45: ACONV = 0;
  3688  001BC2  9AC2               	bcf	4034,5,c	;volatile
  3689                           
  3690                           ;ADC.c: 46: ADON = 1;
  3691  001BC4  80C2               	bsf	4034,0,c	;volatile
  3692                           
  3693                           ;ADC.c: 47: GO_DONE = 1;
  3694  001BC6  82C2               	bsf	4034,1,c	;volatile
  3695  001BC8                     l1118:
  3696  001BC8  B2C2               	btfsc	4034,1,c	;volatile
  3697  001BCA  D7FE               	goto	l1118
  3698                           
  3699                           ;ADC.c: 49: ADON=0;
  3700  001BCC  90C2               	bcf	4034,0,c	;volatile
  3701                           
  3702                           ;ADC.c: 50: return ((ADRESH<<8)+ADRESL);
  3703  001BCE  50C4               	movf	4036,w,c	;volatile
  3704  001BD0  0100               	movlb	0	; () banked
  3705  001BD2  6FBD               	movwf	(??_VFD_CURRENT_ADC+1)& (0+255),b
  3706  001BD4  6BBC               	clrf	??_VFD_CURRENT_ADC& (0+255),b
  3707  001BD6  50C3               	movf	4035,w,c	;volatile
  3708  001BD8  0100               	movlb	0	; () banked
  3709  001BDA  25BC               	addwf	??_VFD_CURRENT_ADC& (0+255),w,b
  3710  001BDC  0100               	movlb	0	; () banked
  3711  001BDE  6FBA               	movwf	?_VFD_CURRENT_ADC& (0+255),b
  3712  001BE0  0E00               	movlw	0
  3713  001BE2  0100               	movlb	0	; () banked
  3714  001BE4  21BD               	addwfc	(??_VFD_CURRENT_ADC+1)& (0+255),w,b
  3715  001BE6  0100               	movlb	0	; () banked
  3716  001BE8  6FBB               	movwf	(?_VFD_CURRENT_ADC+1)& (0+255),b
  3717  001BEA  0012               	return	
  3718  001BEC                     __end_of_VFD_CURRENT_ADC:
  3719                           	opt stack 0
  3720                           tblptru	equ	0xFF8
  3721                           tblptrh	equ	0xFF7
  3722                           tblptrl	equ	0xFF6
  3723                           tablat	equ	0xFF5
  3724                           intcon	equ	0xFF2
  3725                           postinc0	equ	0xFEE
  3726                           wreg	equ	0xFE8
  3727                           postdec1	equ	0xFE5
  3728                           fsr1l	equ	0xFE1
  3729                           status	equ	0xFD8
  3730                           
  3731 ;; *************** function _TIMER0_INITIATE *****************
  3732 ;; Defined at:
  3733 ;;		line 16 in file "INITIATE.c"
  3734 ;; Parameters:    Size  Location     Type
  3735 ;;		None
  3736 ;; Auto vars:     Size  Location     Type
  3737 ;;		None
  3738 ;; Return value:  Size  Location     Type
  3739 ;;                  1    wreg      void 
  3740 ;; Registers used:
  3741 ;;		None
  3742 ;; Tracked objects:
  3743 ;;		On entry : 0/0
  3744 ;;		On exit  : 0/0
  3745 ;;		Unchanged: 0/0
  3746 ;; Data sizes:     COMRAM   BANK0   BANK1   BANK2
  3747 ;;      Params:         0       0       0       0
  3748 ;;      Locals:         0       0       0       0
  3749 ;;      Temps:          0       0       0       0
  3750 ;;      Totals:         0       0       0       0
  3751 ;;Total ram usage:        0 bytes
  3752 ;; Hardware stack levels used:    1
  3753 ;; Hardware stack levels required when called:    5
  3754 ;; This function calls:
  3755 ;;		Nothing
  3756 ;; This function is called by:
  3757 ;;		_main
  3758 ;; This function uses a non-reentrant model
  3759 ;;
  3760                           
  3761                           	psect	text12
  3762  001D46                     __ptext12:
  3763                           	opt stack 0
  3764  001D46                     _TIMER0_INITIATE:
  3765                           	opt stack 25
  3766                           
  3767                           ;INITIATE.c: 18: TMR0ON=0;
  3768                           
  3769                           ; BSR set to: 0
  3770                           ;incstack = 0
  3771  001D46  9ED5               	bcf	4053,7,c	;volatile
  3772                           
  3773                           ;INITIATE.c: 19: T016BIT=1;
  3774  001D48  8CD5               	bsf	4053,6,c	;volatile
  3775                           
  3776                           ;INITIATE.c: 20: T0CS=0;
  3777  001D4A  9AD5               	bcf	4053,5,c	;volatile
  3778                           
  3779                           ;INITIATE.c: 21: T0SE=0;
  3780  001D4C  98D5               	bcf	4053,4,c	;volatile
  3781                           
  3782                           ;INITIATE.c: 22: PSA=0;
  3783  001D4E  96D5               	bcf	4053,3,c	;volatile
  3784                           
  3785                           ;INITIATE.c: 23: T0PS0=1;
  3786  001D50  80D5               	bsf	4053,0,c	;volatile
  3787                           
  3788                           ;INITIATE.c: 24: T0PS1=1;
  3789  001D52  82D5               	bsf	4053,1,c	;volatile
  3790                           
  3791                           ;INITIATE.c: 25: T0PS2=1;
  3792  001D54  84D5               	bsf	4053,2,c	;volatile
  3793                           
  3794                           ;INITIATE.c: 26: TMR0IF = 0;
  3795  001D56  94F2               	bcf	intcon,2,c	;volatile
  3796                           
  3797                           ;INITIATE.c: 27: TMR0IE=1;
  3798  001D58  8AF2               	bsf	intcon,5,c	;volatile
  3799                           
  3800                           ;INITIATE.c: 28: TMR0ON=1;
  3801  001D5A  8ED5               	bsf	4053,7,c	;volatile
  3802  001D5C  0012               	return		;funcret
  3803  001D5E                     __end_of_TIMER0_INITIATE:
  3804                           	opt stack 0
  3805                           tblptru	equ	0xFF8
  3806                           tblptrh	equ	0xFF7
  3807                           tblptrl	equ	0xFF6
  3808                           tablat	equ	0xFF5
  3809                           intcon	equ	0xFF2
  3810                           postinc0	equ	0xFEE
  3811                           wreg	equ	0xFE8
  3812                           postdec1	equ	0xFE5
  3813                           fsr1l	equ	0xFE1
  3814                           status	equ	0xFD8
  3815                           
  3816 ;; *************** function _RS485_Data *****************
  3817 ;; Defined at:
  3818 ;;		line 39 in file "PWM_MODULE.c"
  3819 ;; Parameters:    Size  Location     Type
  3820 ;;		None
  3821 ;; Auto vars:     Size  Location     Type
  3822 ;;		None
  3823 ;; Return value:  Size  Location     Type
  3824 ;;                  1    wreg      void 
  3825 ;; Registers used:
  3826 ;;		wreg, status,2, status,0
  3827 ;; Tracked objects:
  3828 ;;		On entry : 0/0
  3829 ;;		On exit  : 0/0
  3830 ;;		Unchanged: 0/0
  3831 ;; Data sizes:     COMRAM   BANK0   BANK1   BANK2
  3832 ;;      Params:         0       0       0       0
  3833 ;;      Locals:         0       0       0       0
  3834 ;;      Temps:          0       0       0       0
  3835 ;;      Totals:         0       0       0       0
  3836 ;;Total ram usage:        0 bytes
  3837 ;; Hardware stack levels used:    1
  3838 ;; Hardware stack levels required when called:    5
  3839 ;; This function calls:
  3840 ;;		Nothing
  3841 ;; This function is called by:
  3842 ;;		_main
  3843 ;; This function uses a non-reentrant model
  3844 ;;
  3845                           
  3846                           	psect	text13
  3847  001C1C                     __ptext13:
  3848                           	opt stack 0
  3849  001C1C                     _RS485_Data:
  3850                           	opt stack 25
  3851                           
  3852                           ;PWM_MODULE.c: 41: Auto_VFD_ON = Data[1];
  3853                           
  3854                           ;incstack = 0
  3855  001C1C  C114  F04B         	movff	_Data+2,_Auto_VFD_ON
  3856                           
  3857                           ;PWM_MODULE.c: 42: if( Data[2] >=5 && Data[2] <61)
  3858  001C20  0101               	movlb	1	; () banked
  3859  001C22  5117               	movf	(_Data+5)& (0+255),w,b
  3860  001C24  E105               	bnz	u2690
  3861  001C26  0E05               	movlw	5
  3862  001C28  0101               	movlb	1	; () banked
  3863  001C2A  5D16               	subwf	(_Data+4)& (0+255),w,b
  3864  001C2C  A0D8               	btfss	status,0,c
  3865  001C2E  0012               	return	
  3866  001C30                     u2690:
  3867                           
  3868                           ; BSR set to: 1
  3869  001C30  0101               	movlb	1	; () banked
  3870  001C32  5117               	movf	(_Data+5)& (0+255),w,b
  3871  001C34  E108               	bnz	l945
  3872  001C36  0E3D               	movlw	61
  3873  001C38  0101               	movlb	1	; () banked
  3874  001C3A  5D16               	subwf	(_Data+4)& (0+255),w,b
  3875  001C3C  B0D8               	btfsc	status,0,c
  3876  001C3E  0012               	return	
  3877                           
  3878                           ; BSR set to: 1
  3879                           ;PWM_MODULE.c: 43: {
  3880                           ;PWM_MODULE.c: 44: Desired_Frequency = Data[2];
  3881  001C40  C116  F0B7         	movff	_Data+4,_Desired_Frequency
  3882  001C44  0012               	return	
  3883  001C46                     l945:
  3884                           
  3885                           ; BSR set to: 1
  3886  001C46  0012               	return		;funcret
  3887  001C48                     __end_of_RS485_Data:
  3888                           	opt stack 0
  3889                           tblptru	equ	0xFF8
  3890                           tblptrh	equ	0xFF7
  3891                           tblptrl	equ	0xFF6
  3892                           tablat	equ	0xFF5
  3893                           intcon	equ	0xFF2
  3894                           postinc0	equ	0xFEE
  3895                           wreg	equ	0xFE8
  3896                           postdec1	equ	0xFE5
  3897                           fsr1l	equ	0xFE1
  3898                           status	equ	0xFD8
  3899                           
  3900 ;; *************** function _IO_Initiation *****************
  3901 ;; Defined at:
  3902 ;;		line 31 in file "INITIATE.c"
  3903 ;; Parameters:    Size  Location     Type
  3904 ;;		None
  3905 ;; Auto vars:     Size  Location     Type
  3906 ;;		None
  3907 ;; Return value:  Size  Location     Type
  3908 ;;                  1    wreg      void 
  3909 ;; Registers used:
  3910 ;;		None
  3911 ;; Tracked objects:
  3912 ;;		On entry : 0/0
  3913 ;;		On exit  : 0/0
  3914 ;;		Unchanged: 0/0
  3915 ;; Data sizes:     COMRAM   BANK0   BANK1   BANK2
  3916 ;;      Params:         0       0       0       0
  3917 ;;      Locals:         0       0       0       0
  3918 ;;      Temps:          0       0       0       0
  3919 ;;      Totals:         0       0       0       0
  3920 ;;Total ram usage:        0 bytes
  3921 ;; Hardware stack levels used:    1
  3922 ;; Hardware stack levels required when called:    5
  3923 ;; This function calls:
  3924 ;;		Nothing
  3925 ;; This function is called by:
  3926 ;;		_main
  3927 ;; This function uses a non-reentrant model
  3928 ;;
  3929                           
  3930                           	psect	text14
  3931  001D2C                     __ptext14:
  3932                           	opt stack 0
  3933  001D2C                     _IO_Initiation:
  3934                           	opt stack 25
  3935                           
  3936                           ;INITIATE.c: 33: TRISC3 = 0;
  3937                           
  3938                           ; BSR set to: 1
  3939                           ;incstack = 0
  3940  001D2C  9694               	bcf	3988,3,c	;volatile
  3941                           
  3942                           ;INITIATE.c: 34: TRISA2 = 1;
  3943  001D2E  8492               	bsf	3986,2,c	;volatile
  3944                           
  3945                           ;INITIATE.c: 35: ANS2 = 0;
  3946  001D30  94B8               	bcf	4024,2,c	;volatile
  3947                           
  3948                           ;INITIATE.c: 36: TRISA3 = 1;
  3949  001D32  8692               	bsf	3986,3,c	;volatile
  3950                           
  3951                           ;INITIATE.c: 37: ANS3 = 0;
  3952  001D34  96B8               	bcf	4024,3,c	;volatile
  3953                           
  3954                           ;INITIATE.c: 38: TRISA4 = 1;
  3955  001D36  8892               	bsf	3986,4,c	;volatile
  3956                           
  3957                           ;INITIATE.c: 39: ANS4 = 0;
  3958  001D38  98B8               	bcf	4024,4,c	;volatile
  3959                           
  3960                           ;INITIATE.c: 40: TRISA7 = 1;
  3961  001D3A  8E92               	bsf	3986,7,c	;volatile
  3962                           
  3963                           ;INITIATE.c: 41: TRISC1 = 1;
  3964  001D3C  8294               	bsf	3988,1,c	;volatile
  3965                           
  3966                           ;INITIATE.c: 43: TRISA6 = 0;
  3967  001D3E  9C92               	bcf	3986,6,c	;volatile
  3968                           
  3969                           ;INITIATE.c: 44: RA6 = 0;
  3970  001D40  9C80               	bcf	3968,6,c	;volatile
  3971                           
  3972                           ;INITIATE.c: 46: TRISC0 = 1;
  3973  001D42  8094               	bsf	3988,0,c	;volatile
  3974  001D44  0012               	return		;funcret
  3975  001D46                     __end_of_IO_Initiation:
  3976                           	opt stack 0
  3977                           tblptru	equ	0xFF8
  3978                           tblptrh	equ	0xFF7
  3979                           tblptrl	equ	0xFF6
  3980                           tablat	equ	0xFF5
  3981                           intcon	equ	0xFF2
  3982                           postinc0	equ	0xFEE
  3983                           wreg	equ	0xFE8
  3984                           postdec1	equ	0xFE5
  3985                           fsr1l	equ	0xFE1
  3986                           status	equ	0xFD8
  3987                           
  3988 ;; *************** function _DC_Bus_Volt_ADC *****************
  3989 ;; Defined at:
  3990 ;;		line 28 in file "ADC.c"
  3991 ;; Parameters:    Size  Location     Type
  3992 ;;		None
  3993 ;; Auto vars:     Size  Location     Type
  3994 ;;		None
  3995 ;; Return value:  Size  Location     Type
  3996 ;;                  2    0[BANK0 ] unsigned int 
  3997 ;; Registers used:
  3998 ;;		wreg, status,2, status,0
  3999 ;; Tracked objects:
  4000 ;;		On entry : 0/0
  4001 ;;		On exit  : 0/0
  4002 ;;		Unchanged: 0/0
  4003 ;; Data sizes:     COMRAM   BANK0   BANK1   BANK2
  4004 ;;      Params:         0       2       0       0
  4005 ;;      Locals:         0       0       0       0
  4006 ;;      Temps:          0       2       0       0
  4007 ;;      Totals:         0       4       0       0
  4008 ;;Total ram usage:        4 bytes
  4009 ;; Hardware stack levels used:    1
  4010 ;; Hardware stack levels required when called:    5
  4011 ;; This function calls:
  4012 ;;		Nothing
  4013 ;; This function is called by:
  4014 ;;		_main
  4015 ;; This function uses a non-reentrant model
  4016 ;;
  4017                           
  4018                           	psect	text15
  4019  001BEC                     __ptext15:
  4020                           	opt stack 0
  4021  001BEC                     _DC_Bus_Volt_ADC:
  4022                           	opt stack 25
  4023                           
  4024                           ;ADC.c: 30: ACSCH = 0;
  4025                           
  4026                           ;incstack = 0
  4027  001BEC  98C2               	bcf	4034,4,c	;volatile
  4028                           
  4029                           ;ADC.c: 31: ACMOD0 = 0;
  4030  001BEE  94C2               	bcf	4034,2,c	;volatile
  4031                           
  4032                           ;ADC.c: 32: ACMOD1 = 0;
  4033  001BF0  96C2               	bcf	4034,3,c	;volatile
  4034                           
  4035                           ;ADC.c: 33: ACONV = 0;
  4036  001BF2  9AC2               	bcf	4034,5,c	;volatile
  4037                           
  4038                           ;ADC.c: 34: ADON = 1;
  4039  001BF4  80C2               	bsf	4034,0,c	;volatile
  4040                           
  4041                           ;ADC.c: 35: GO_DONE = 1;
  4042  001BF6  82C2               	bsf	4034,1,c	;volatile
  4043  001BF8                     l1112:
  4044  001BF8  B2C2               	btfsc	4034,1,c	;volatile
  4045  001BFA  D7FE               	goto	l1112
  4046                           
  4047                           ;ADC.c: 37: ADON=0;
  4048  001BFC  90C2               	bcf	4034,0,c	;volatile
  4049                           
  4050                           ;ADC.c: 38: return ((ADRESH<<8)+ADRESL);
  4051  001BFE  50C4               	movf	4036,w,c	;volatile
  4052  001C00  0100               	movlb	0	; () banked
  4053  001C02  6FBD               	movwf	(??_DC_Bus_Volt_ADC+1)& (0+255),b
  4054  001C04  6BBC               	clrf	??_DC_Bus_Volt_ADC& (0+255),b
  4055  001C06  50C3               	movf	4035,w,c	;volatile
  4056  001C08  0100               	movlb	0	; () banked
  4057  001C0A  25BC               	addwf	??_DC_Bus_Volt_ADC& (0+255),w,b
  4058  001C0C  0100               	movlb	0	; () banked
  4059  001C0E  6FBA               	movwf	?_DC_Bus_Volt_ADC& (0+255),b
  4060  001C10  0E00               	movlw	0
  4061  001C12  0100               	movlb	0	; () banked
  4062  001C14  21BD               	addwfc	(??_DC_Bus_Volt_ADC+1)& (0+255),w,b
  4063  001C16  0100               	movlb	0	; () banked
  4064  001C18  6FBB               	movwf	(?_DC_Bus_Volt_ADC+1)& (0+255),b
  4065  001C1A  0012               	return	
  4066  001C1C                     __end_of_DC_Bus_Volt_ADC:
  4067                           	opt stack 0
  4068                           tblptru	equ	0xFF8
  4069                           tblptrh	equ	0xFF7
  4070                           tblptrl	equ	0xFF6
  4071                           tablat	equ	0xFF5
  4072                           intcon	equ	0xFF2
  4073                           postinc0	equ	0xFEE
  4074                           wreg	equ	0xFE8
  4075                           postdec1	equ	0xFE5
  4076                           fsr1l	equ	0xFE1
  4077                           status	equ	0xFD8
  4078                           
  4079 ;; *************** function _ISR *****************
  4080 ;; Defined at:
  4081 ;;		line 17 in file "ISR.c"
  4082 ;; Parameters:    Size  Location     Type
  4083 ;;		None
  4084 ;; Auto vars:     Size  Location     Type
  4085 ;;		None
  4086 ;; Return value:  Size  Location     Type
  4087 ;;                  1    wreg      void 
  4088 ;; Registers used:
  4089 ;;		wreg, fsr2l, fsr2h, status,2, status,0, tblptrl, tblptrh, tblptru, prodl, prodh, cstack
  4090 ;; Tracked objects:
  4091 ;;		On entry : 0/0
  4092 ;;		On exit  : 0/0
  4093 ;;		Unchanged: 0/0
  4094 ;; Data sizes:     COMRAM   BANK0   BANK1   BANK2
  4095 ;;      Params:         0       0       0       0
  4096 ;;      Locals:         0       0       0       0
  4097 ;;      Temps:         16       0       0       0
  4098 ;;      Totals:        16       0       0       0
  4099 ;;Total ram usage:       16 bytes
  4100 ;; Hardware stack levels used:    1
  4101 ;; Hardware stack levels required when called:    4
  4102 ;; This function calls:
  4103 ;;		_Auto_PWM_Cal
  4104 ;;		_Logic_Error_Io
  4105 ;;		_POWER_PWM
  4106 ;;		_Push_Button
  4107 ;;		_VFD_Current
  4108 ;;		_VFD_SHORT_CIRCUIT_ERROR
  4109 ;;		_Voltage_Error_Trigger
  4110 ;; This function is called by:
  4111 ;;		Interrupt level 2
  4112 ;; This function uses a non-reentrant model
  4113 ;;
  4114                           
  4115                           	psect	intcode
  4116  000008                     __pintcode:
  4117                           	opt stack 0
  4118  000008                     _ISR:
  4119                           	opt stack 24
  4120                           
  4121                           ; BSR set to: 0
  4122                           ;incstack = 0
  4123  000008  825F               	bsf	btemp,1,c	;set compiler interrupt flag (level 2)
  4124  00000A  CFFA F035          	movff	pclath,??_ISR+2
  4125  00000E  CFFB F036          	movff	pclatu,??_ISR+3
  4126  000012  CFE9 F037          	movff	fsr0l,??_ISR+4
  4127  000016  CFEA F038          	movff	fsr0h,??_ISR+5
  4128  00001A  CFE1 F039          	movff	fsr1l,??_ISR+6
  4129  00001E  CFE2 F03A          	movff	fsr1h,??_ISR+7
  4130  000022  CFD9 F03B          	movff	fsr2l,??_ISR+8
  4131  000026  CFDA F03C          	movff	fsr2h,??_ISR+9
  4132  00002A  CFF3 F03D          	movff	prodl,??_ISR+10
  4133  00002E  CFF4 F03E          	movff	prodh,??_ISR+11
  4134  000032  CFF6 F03F          	movff	tblptrl,??_ISR+12
  4135  000036  CFF7 F040          	movff	tblptrh,??_ISR+13
  4136  00003A  CFF8 F041          	movff	tblptru,??_ISR+14
  4137  00003E  CFF5 F042          	movff	tablat,??_ISR+15
  4138                           
  4139                           ;ISR.c: 19: if(PIR1bits.RC1IF)
  4140  000042  AA9E               	btfss	3998,5,c	;volatile
  4141  000044  D02A               	goto	i2l4026
  4142                           
  4143                           ;ISR.c: 20: {
  4144                           ;ISR.c: 21: if(RCSTA1bits.OERR==1)
  4145  000046  A2AB               	btfss	4011,1,c	;volatile
  4146  000048  D002               	goto	i2l4012
  4147                           
  4148                           ;ISR.c: 22: {
  4149                           ;ISR.c: 23: RCSTA1bits.CREN=0;
  4150  00004A  98AB               	bcf	4011,4,c	;volatile
  4151                           
  4152                           ;ISR.c: 24: RCSTA1bits.CREN=1;
  4153  00004C  88AB               	bsf	4011,4,c	;volatile
  4154  00004E                     i2l4012:
  4155                           
  4156                           ;ISR.c: 25: }
  4157                           ;ISR.c: 26: Data[counter] = RCREG1;
  4158  00004E  50AE               	movf	4014,w,c	;volatile
  4159  000050  6E33               	movwf	??_ISR& (0+255),c
  4160  000052  6A34               	clrf	(??_ISR+1)& (0+255),c
  4161  000054  5058               	movf	_counter,w,c
  4162  000056  0D02               	mullw	2
  4163  000058  0E12               	movlw	low _Data
  4164  00005A  24F3               	addwf	prodl,w,c
  4165  00005C  6ED9               	movwf	fsr2l,c
  4166  00005E  0E01               	movlw	high _Data
  4167  000060  20F4               	addwfc	prodh,w,c
  4168  000062  6EDA               	movwf	fsr2h,c
  4169  000064  C033  FFDE         	movff	??_ISR,postinc2
  4170  000068  C034  FFDD         	movff	??_ISR+1,postdec2
  4171                           
  4172                           ;ISR.c: 27: if(Data[0] == 0x07)
  4173  00006C  0E07               	movlw	7
  4174  00006E  0101               	movlb	1	; () banked
  4175  000070  1912               	xorwf	_Data& (0+255),w,b
  4176  000072  0101               	movlb	1	; () banked
  4177  000074  1113               	iorwf	(_Data+1)& (0+255),w,b
  4178  000076  A4D8               	btfss	status,2,c
  4179  000078  D004               	goto	i2l4020
  4180                           
  4181                           ; BSR set to: 1
  4182                           ;ISR.c: 28: {
  4183                           ;ISR.c: 29: if(counter < 5)
  4184  00007A  0E05               	movlw	5
  4185  00007C  6058               	cpfslt	_counter,c
  4186  00007E  D001               	goto	i2l4020
  4187                           
  4188                           ; BSR set to: 1
  4189                           ;ISR.c: 30: {
  4190                           ;ISR.c: 31: counter++;
  4191  000080  2A58               	incf	_counter,f,c
  4192  000082                     i2l4020:
  4193                           
  4194                           ; BSR set to: 1
  4195                           ;ISR.c: 32: }
  4196                           ;ISR.c: 33: }
  4197                           ;ISR.c: 34: if(counter == 5)
  4198  000082  0E05               	movlw	5
  4199  000084  1858               	xorwf	_counter,w,c
  4200  000086  A4D8               	btfss	status,2,c
  4201  000088  D007               	goto	i2l4024
  4202                           
  4203                           ; BSR set to: 1
  4204                           ;ISR.c: 35: {
  4205                           ;ISR.c: 36: Data_Send_Flag = 1;
  4206  00008A  0E00               	movlw	0
  4207  00008C  0100               	movlb	0	; () banked
  4208  00008E  6F99               	movwf	(_Data_Send_Flag+1)& (0+255),b
  4209  000090  0E01               	movlw	1
  4210  000092  6F98               	movwf	_Data_Send_Flag& (0+255),b
  4211                           
  4212                           ;ISR.c: 37: counter = 0;
  4213  000094  0E00               	movlw	0
  4214  000096  6E58               	movwf	_counter,c
  4215  000098                     i2l4024:
  4216                           
  4217                           ;ISR.c: 38: }
  4218                           ;ISR.c: 39: PIR1bits.RC1IF = 0;
  4219  000098  9A9E               	bcf	3998,5,c	;volatile
  4220  00009A                     i2l4026:
  4221                           
  4222                           ;ISR.c: 40: }
  4223                           ;ISR.c: 41: if(PTIF)
  4224  00009A  A8A4               	btfss	4004,4,c	;volatile
  4225  00009C  D053               	goto	i2l4062
  4226                           
  4227                           ;ISR.c: 42: {
  4228                           ;ISR.c: 43: PTIF = 0;
  4229  00009E  98A4               	bcf	4004,4,c	;volatile
  4230                           
  4231                           ;ISR.c: 44: ++gDutycount;
  4232  0000A0  2A59               	incf	_gDutycount,f,c
  4233                           
  4234                           ;ISR.c: 46: if(gDutycount == 99)
  4235  0000A2  0E63               	movlw	99
  4236  0000A4  1859               	xorwf	_gDutycount,w,c
  4237  0000A6  A4D8               	btfss	status,2,c
  4238  0000A8  D002               	goto	i2l4036
  4239                           
  4240                           ;ISR.c: 47: {
  4241                           ;ISR.c: 48: gDutycount = 0;
  4242  0000AA  0E00               	movlw	0
  4243  0000AC  6E59               	movwf	_gDutycount,c
  4244  0000AE                     i2l4036:
  4245                           
  4246                           ;ISR.c: 49: }
  4247                           ;ISR.c: 50: gDutycount1 = gDutycount+66;
  4248  0000AE  5059               	movf	_gDutycount,w,c
  4249  0000B0  0F42               	addlw	66
  4250  0000B2  6E5A               	movwf	_gDutycount1,c
  4251                           
  4252                           ;ISR.c: 51: if(gDutycount1 >= 99)
  4253  0000B4  0E62               	movlw	98
  4254  0000B6  645A               	cpfsgt	_gDutycount1,c
  4255  0000B8  D003               	goto	i2l420
  4256                           
  4257                           ;ISR.c: 52: {
  4258                           ;ISR.c: 53: gDutycount1=gDutycount1 - 99;
  4259  0000BA  505A               	movf	_gDutycount1,w,c
  4260  0000BC  0F9D               	addlw	157
  4261  0000BE  6E5A               	movwf	_gDutycount1,c
  4262  0000C0                     i2l420:
  4263                           
  4264                           ;ISR.c: 54: }
  4265                           ;ISR.c: 55: gDutycount2 = gDutycount+33;
  4266  0000C0  5059               	movf	_gDutycount,w,c
  4267  0000C2  0F21               	addlw	33
  4268  0000C4  6E5B               	movwf	_gDutycount2,c
  4269                           
  4270                           ;ISR.c: 56: if(gDutycount2 >= 99)
  4271  0000C6  0E62               	movlw	98
  4272  0000C8  645B               	cpfsgt	_gDutycount2,c
  4273  0000CA  D003               	goto	i2l4044
  4274                           
  4275                           ;ISR.c: 57: {
  4276                           ;ISR.c: 58: gDutycount2=gDutycount2 - 99;
  4277  0000CC  505B               	movf	_gDutycount2,w,c
  4278  0000CE  0F9D               	addlw	157
  4279  0000D0  6E5B               	movwf	_gDutycount2,c
  4280  0000D2                     i2l4044:
  4281                           
  4282                           ;ISR.c: 59: }
  4283                           ;ISR.c: 60: PDC0_1 = SINE_TABLE[gDutycount] ;
  4284  0000D2  5059               	movf	_gDutycount,w,c
  4285  0000D4  0D02               	mullw	2
  4286  0000D6  0E01               	movlw	low _SINE_TABLE
  4287  0000D8  24F3               	addwf	prodl,w,c
  4288  0000DA  6EF6               	movwf	tblptrl,c
  4289  0000DC  0E04               	movlw	high _SINE_TABLE
  4290  0000DE  20F4               	addwfc	prodh,w,c
  4291  0000E0  6EF7               	movwf	tblptrh,c
  4292  0000E2                     	if	0	;There are less than 3 active tblptr bytes
  4293  0000E2                     	endif
  4294  0000E2  0009               	tblrd		*+
  4295  0000E4  CFF5 F09C          	movff	tablat,_PDC0_1
  4296  0000E8  000A               	tblrd		*-
  4297  0000EA  CFF5 F09D          	movff	tablat,_PDC0_1+1
  4298                           
  4299                           ;ISR.c: 61: PDC1_1 = SINE_TABLE[gDutycount1] ;
  4300  0000EE  505A               	movf	_gDutycount1,w,c
  4301  0000F0  0D02               	mullw	2
  4302  0000F2  0E01               	movlw	low _SINE_TABLE
  4303  0000F4  24F3               	addwf	prodl,w,c
  4304  0000F6  6EF6               	movwf	tblptrl,c
  4305  0000F8  0E04               	movlw	high _SINE_TABLE
  4306  0000FA  20F4               	addwfc	prodh,w,c
  4307  0000FC  6EF7               	movwf	tblptrh,c
  4308  0000FE                     	if	0	;There are less than 3 active tblptr bytes
  4309  0000FE                     	endif
  4310  0000FE  0009               	tblrd		*+
  4311  000100  CFF5 F09E          	movff	tablat,_PDC1_1
  4312  000104  000A               	tblrd		*-
  4313  000106  CFF5 F09F          	movff	tablat,_PDC1_1+1
  4314                           
  4315                           ;ISR.c: 62: PDC2_1 = SINE_TABLE[gDutycount2] ;
  4316  00010A  505B               	movf	_gDutycount2,w,c
  4317  00010C  0D02               	mullw	2
  4318  00010E  0E01               	movlw	low _SINE_TABLE
  4319  000110  24F3               	addwf	prodl,w,c
  4320  000112  6EF6               	movwf	tblptrl,c
  4321  000114  0E04               	movlw	high _SINE_TABLE
  4322  000116  20F4               	addwfc	prodh,w,c
  4323  000118  6EF7               	movwf	tblptrh,c
  4324  00011A                     	if	0	;There are less than 3 active tblptr bytes
  4325  00011A                     	endif
  4326  00011A  0009               	tblrd		*+
  4327  00011C  CFF5 F0A0          	movff	tablat,_PDC2_1
  4328  000120  000A               	tblrd		*-
  4329  000122  CFF5 F0A1          	movff	tablat,_PDC2_1+1
  4330                           
  4331                           ;ISR.c: 64: PDC0L = PDC0_1 & 0xFF ;
  4332  000126  C09C  FF79         	movff	_PDC0_1,3961	;volatile
  4333                           
  4334                           ;ISR.c: 65: PDC0H = PDC0_1 >> 8 ;
  4335  00012A  0100               	movlb	0	; () banked
  4336  00012C  519D               	movf	(_PDC0_1+1)& (0+255),w,b
  4337  00012E  6E78               	movwf	3960,c	;volatile
  4338                           
  4339                           ; BSR set to: 0
  4340                           ;ISR.c: 67: PDC1L = PDC1_1 & 0xFF ;
  4341  000130  C09E  FF77         	movff	_PDC1_1,3959	;volatile
  4342                           
  4343                           ; BSR set to: 0
  4344                           ;ISR.c: 68: PDC1H = PDC1_1 >> 8 ;
  4345  000134  0100               	movlb	0	; () banked
  4346  000136  519F               	movf	(_PDC1_1+1)& (0+255),w,b
  4347  000138  6E76               	movwf	3958,c	;volatile
  4348                           
  4349                           ; BSR set to: 0
  4350                           ;ISR.c: 70: PDC2L = PDC2_1 & 0xFF ;
  4351  00013A  C0A0  FF75         	movff	_PDC2_1,3957	;volatile
  4352                           
  4353                           ; BSR set to: 0
  4354                           ;ISR.c: 71: PDC2H = PDC2_1 >> 8 ;
  4355  00013E  0100               	movlb	0	; () banked
  4356  000140  51A1               	movf	(_PDC2_1+1)& (0+255),w,b
  4357  000142  6E74               	movwf	3956,c	;volatile
  4358  000144                     i2l4062:
  4359                           
  4360                           ;ISR.c: 74: }
  4361                           ;ISR.c: 75: if (TMR0IF)
  4362  000144  A4F2               	btfss	intcon,2,c	;volatile
  4363  000146  D122               	goto	i2l438
  4364                           
  4365                           ;ISR.c: 76: {
  4366                           ;ISR.c: 77: TMR0IF = 0;
  4367  000148  94F2               	bcf	intcon,2,c	;volatile
  4368                           
  4369                           ;ISR.c: 78: if(ADC_Flag == 0)
  4370  00014A  0100               	movlb	0	; () banked
  4371  00014C  51B6               	movf	_ADC_Flag& (0+255),w,b
  4372  00014E  A4D8               	btfss	status,2,c
  4373  000150  D003               	goto	i2l4070
  4374                           
  4375                           ; BSR set to: 0
  4376                           ;ISR.c: 79: {
  4377                           ;ISR.c: 80: ADC_Flag = 1;
  4378  000152  0E01               	movlw	1
  4379  000154  0100               	movlb	0	; () banked
  4380  000156  6FB6               	movwf	_ADC_Flag& (0+255),b
  4381  000158                     i2l4070:
  4382                           
  4383                           ; BSR set to: 0
  4384                           ;ISR.c: 81: }
  4385                           ;ISR.c: 82: VFD_Current();
  4386  000158  ECBF  F00D         	call	_VFD_Current	;wreg free
  4387                           
  4388                           ;ISR.c: 83: VFD_SHORT_CIRCUIT_ERROR();
  4389  00015C  EC5D  F00E         	call	_VFD_SHORT_CIRCUIT_ERROR	;wreg free
  4390                           
  4391                           ;ISR.c: 84: Logic_Error_Io();
  4392  000160  EC6E  F00E         	call	_Logic_Error_Io	;wreg free
  4393                           
  4394                           ;ISR.c: 86: if(Auto_Manual == 1 && Auto_VFD_ON == 1 && Error_no != 0)
  4395  000164  0447               	decf	_Auto_Manual,w,c
  4396  000166  1048               	iorwf	_Auto_Manual+1,w,c
  4397  000168  A4D8               	btfss	status,2,c
  4398  00016A  D01C               	goto	i2l4110
  4399  00016C  044B               	decf	_Auto_VFD_ON,w,c
  4400  00016E  A4D8               	btfss	status,2,c
  4401  000170  D019               	goto	i2l4110
  4402  000172  0100               	movlb	0	; () banked
  4403  000174  51B8               	movf	_Error_no& (0+255),w,b
  4404  000176  B4D8               	btfsc	status,2,c
  4405  000178  D015               	goto	i2l4110
  4406                           
  4407                           ; BSR set to: 0
  4408                           ;ISR.c: 87: {
  4409                           ;ISR.c: 88: PWMEN2 = 0;
  4410  00017A  9C6F               	bcf	3951,6,c	;volatile
  4411                           
  4412                           ;ISR.c: 89: PWMEN1 = 0;
  4413  00017C  9A6F               	bcf	3951,5,c	;volatile
  4414                           
  4415                           ;ISR.c: 90: PWMEN0 = 0;
  4416  00017E  986F               	bcf	3951,4,c	;volatile
  4417                           
  4418                           ;ISR.c: 91: RA6 = 1;
  4419  000180  8C80               	bsf	3968,6,c	;volatile
  4420                           
  4421                           ; BSR set to: 0
  4422                           ;ISR.c: 92: Desired_Frequency = (6); PWM_Init = 0;
  4423  000182  0E06               	movlw	6
  4424  000184  0100               	movlb	0	; () banked
  4425  000186  6FB7               	movwf	_Desired_Frequency& (0+255),b
  4426  000188  0E00               	movlw	0
  4427  00018A  6E55               	movwf	_PWM_Init,c
  4428                           
  4429                           ; BSR set to: 0
  4430                           ;ISR.c: 93: TRISB0 = 0; TRISB1 = 0; TRISB2 = 0; TRISB3 = 0; TRISB4 = 0; TRISB5 = 0;
  4431  00018C  9093               	bcf	3987,0,c	;volatile
  4432                           
  4433                           ; BSR set to: 0
  4434  00018E  9293               	bcf	3987,1,c	;volatile
  4435                           
  4436                           ; BSR set to: 0
  4437  000190  9493               	bcf	3987,2,c	;volatile
  4438                           
  4439                           ; BSR set to: 0
  4440  000192  9693               	bcf	3987,3,c	;volatile
  4441                           
  4442                           ; BSR set to: 0
  4443  000194  9893               	bcf	3987,4,c	;volatile
  4444                           
  4445                           ; BSR set to: 0
  4446  000196  9A93               	bcf	3987,5,c	;volatile
  4447                           
  4448                           ; BSR set to: 0
  4449                           ;ISR.c: 94: RB0 = 0; RB1 = 0; RB2 = 0; RB3 = 0; RB4 = 0; RB5 = 0;
  4450  000198  9081               	bcf	3969,0,c	;volatile
  4451                           
  4452                           ; BSR set to: 0
  4453  00019A  9281               	bcf	3969,1,c	;volatile
  4454                           
  4455                           ; BSR set to: 0
  4456  00019C  9481               	bcf	3969,2,c	;volatile
  4457                           
  4458                           ; BSR set to: 0
  4459  00019E  9681               	bcf	3969,3,c	;volatile
  4460                           
  4461                           ; BSR set to: 0
  4462  0001A0  9881               	bcf	3969,4,c	;volatile
  4463                           
  4464                           ; BSR set to: 0
  4465  0001A2  9A81               	bcf	3969,5,c	;volatile
  4466  0001A4                     i2l4110:
  4467                           
  4468                           ;ISR.c: 95: }
  4469                           ;ISR.c: 97: if(LOGIC_ERROR_FLAG == 1 || RC1 == 1 || DC_Bus_Voltage_Low == 1 || DC_Bus_Vo
      +                          ltage_High == 1 || Dc_Bus_Current == 1 || VFD_SHORT_CIRCUIT_ERROR_flag == 1 || DC_Bus_Vo
      +                          ltage_Extrem_Low == 1)
  4470  0001A4  0454               	decf	_LOGIC_ERROR_FLAG,w,c
  4471  0001A6  A4D8               	btfss	status,2,c
  4472  0001A8  B282               	btfsc	3970,1,c	;volatile
  4473  0001AA  D00F               	goto	i2l427
  4474  0001AC  044E               	decf	_DC_Bus_Voltage_Low,w,c
  4475  0001AE  B4D8               	btfsc	status,2,c
  4476  0001B0  D00C               	goto	i2l427
  4477  0001B2  044D               	decf	_DC_Bus_Voltage_High,w,c
  4478  0001B4  B4D8               	btfsc	status,2,c
  4479  0001B6  D009               	goto	i2l427
  4480  0001B8  044F               	decf	_Dc_Bus_Current,w,c
  4481  0001BA  B4D8               	btfsc	status,2,c
  4482  0001BC  D006               	goto	i2l427
  4483  0001BE  0457               	decf	_VFD_SHORT_CIRCUIT_ERROR_flag,w,c
  4484  0001C0  B4D8               	btfsc	status,2,c
  4485  0001C2  D003               	goto	i2l427
  4486  0001C4  044C               	decf	_DC_Bus_Voltage_Extrem_Low,w,c
  4487  0001C6  A4D8               	btfss	status,2,c
  4488  0001C8  D025               	goto	i2l4126
  4489  0001CA                     i2l427:
  4490                           
  4491                           ;ISR.c: 98: {
  4492                           ;ISR.c: 99: PWMEN2 = 0;
  4493  0001CA  9C6F               	bcf	3951,6,c	;volatile
  4494                           
  4495                           ;ISR.c: 100: PWMEN1 = 0;
  4496  0001CC  9A6F               	bcf	3951,5,c	;volatile
  4497                           
  4498                           ;ISR.c: 101: PWMEN0 = 0;
  4499  0001CE  986F               	bcf	3951,4,c	;volatile
  4500                           
  4501                           ;ISR.c: 103: TRISB0 = 0; TRISB1 = 0; TRISB2 = 0; TRISB3 = 0; TRISB4 = 0; TRISB5 = 0;
  4502  0001D0  9093               	bcf	3987,0,c	;volatile
  4503  0001D2  9293               	bcf	3987,1,c	;volatile
  4504  0001D4  9493               	bcf	3987,2,c	;volatile
  4505  0001D6  9693               	bcf	3987,3,c	;volatile
  4506  0001D8  9893               	bcf	3987,4,c	;volatile
  4507  0001DA  9A93               	bcf	3987,5,c	;volatile
  4508                           
  4509                           ;ISR.c: 104: RB0 = 0; RB1 = 0; RB2 = 0; RB3 = 0; RB4 = 0; RB5 = 0;
  4510  0001DC  9081               	bcf	3969,0,c	;volatile
  4511  0001DE  9281               	bcf	3969,1,c	;volatile
  4512  0001E0  9481               	bcf	3969,2,c	;volatile
  4513  0001E2  9681               	bcf	3969,3,c	;volatile
  4514  0001E4  9881               	bcf	3969,4,c	;volatile
  4515  0001E6  9A81               	bcf	3969,5,c	;volatile
  4516                           
  4517                           ;ISR.c: 105: ON_OFF = 0;
  4518  0001E8  0E00               	movlw	0
  4519  0001EA  6E4A               	movwf	_ON_OFF+1,c
  4520  0001EC  0E00               	movlw	0
  4521  0001EE  6E49               	movwf	_ON_OFF,c
  4522                           
  4523                           ;ISR.c: 106: Frequency = 5;
  4524  0001F0  0E00               	movlw	0
  4525  0001F2  6E5C               	movwf	_Frequency,c
  4526  0001F4  0EA0               	movlw	160
  4527  0001F6  6E5D               	movwf	_Frequency+1,c
  4528  0001F8  0E40               	movlw	64
  4529  0001FA  6E5E               	movwf	_Frequency+2,c
  4530                           
  4531                           ;ISR.c: 107: DC_Bus_Voltage_Low = 0,DC_Bus_Voltage_High = 0,Dc_Bus_Current = 0;
  4532  0001FC  0E00               	movlw	0
  4533  0001FE  6E4E               	movwf	_DC_Bus_Voltage_Low,c
  4534  000200  0E00               	movlw	0
  4535  000202  6E4D               	movwf	_DC_Bus_Voltage_High,c
  4536  000204  0E00               	movlw	0
  4537  000206  6E4F               	movwf	_Dc_Bus_Current,c
  4538                           
  4539                           ;ISR.c: 108: DC_Bus_Voltage_Extrem_Low = 0; VFD_SHORT_CIRCUIT_ERROR_flag = 0;
  4540  000208  0E00               	movlw	0
  4541  00020A  6E4C               	movwf	_DC_Bus_Voltage_Extrem_Low,c
  4542  00020C  0E00               	movlw	0
  4543  00020E  6E57               	movwf	_VFD_SHORT_CIRCUIT_ERROR_flag,c
  4544                           
  4545                           ;ISR.c: 109: LOGIC_ERROR_FLAG = 0;
  4546  000210  0E00               	movlw	0
  4547  000212  6E54               	movwf	_LOGIC_ERROR_FLAG,c
  4548  000214                     i2l4126:
  4549                           
  4550                           ;ISR.c: 110: }
  4551                           ;ISR.c: 112: Timer0_Overflow_counter++;
  4552  000214  0100               	movlb	0	; () banked
  4553  000216  4BA6               	infsnz	_Timer0_Overflow_counter& (0+255),f,b
  4554  000218  2BA7               	incf	(_Timer0_Overflow_counter+1)& (0+255),f,b
  4555                           
  4556                           ; BSR set to: 0
  4557                           ;ISR.c: 113: if(Timer0_Overflow_counter >= 30)
  4558  00021A  0100               	movlb	0	; () banked
  4559  00021C  51A7               	movf	(_Timer0_Overflow_counter+1)& (0+255),w,b
  4560  00021E  E105               	bnz	i2u383_40
  4561  000220  0E1E               	movlw	30
  4562  000222  0100               	movlb	0	; () banked
  4563  000224  5DA6               	subwf	_Timer0_Overflow_counter& (0+255),w,b
  4564  000226  A0D8               	btfss	status,0,c
  4565  000228  D06F               	goto	i2l4216
  4566  00022A                     i2u383_40:
  4567                           
  4568                           ; BSR set to: 0
  4569                           ;ISR.c: 114: {
  4570                           ;ISR.c: 115: RC5 = ~RC5;
  4571  00022A  BA82               	btfsc	3970,5,c	;volatile
  4572  00022C  D002               	goto	i2u384_40
  4573  00022E  8A82               	bsf	3970,5,c	;volatile
  4574  000230  D001               	goto	i2l4132
  4575  000232                     i2u384_40:
  4576  000232  9A82               	bcf	3970,5,c	;volatile
  4577  000234                     i2l4132:
  4578                           
  4579                           ;ISR.c: 117: Temp_Counter++;
  4580  000234  0100               	movlb	0	; () banked
  4581  000236  4BA4               	infsnz	_Temp_Counter& (0+255),f,b
  4582  000238  2BA5               	incf	(_Temp_Counter+1)& (0+255),f,b
  4583                           
  4584                           ; BSR set to: 0
  4585                           ;ISR.c: 118: Push_Button();
  4586  00023A  ECFA  F008         	call	_Push_Button	;wreg free
  4587                           
  4588                           ;ISR.c: 119: Voltage_Error_Trigger();
  4589  00023E  EC08  F00B         	call	_Voltage_Error_Trigger	;wreg free
  4590                           
  4591                           ;ISR.c: 120: if(Flag == 0)
  4592  000242  0100               	movlb	0	; () banked
  4593  000244  51B9               	movf	_Flag& (0+255),w,b
  4594  000246  A4D8               	btfss	status,2,c
  4595  000248  D003               	goto	i2l4144
  4596                           
  4597                           ; BSR set to: 0
  4598                           ;ISR.c: 121: {
  4599                           ;ISR.c: 122: Flag = 1;
  4600  00024A  0E01               	movlw	1
  4601  00024C  0100               	movlb	0	; () banked
  4602  00024E  6FB9               	movwf	_Flag& (0+255),b
  4603  000250                     i2l4144:
  4604                           
  4605                           ; BSR set to: 0
  4606                           ;ISR.c: 129: }
  4607                           ;ISR.c: 130: Timer0_Overflow_counter = 0;
  4608  000250  0E00               	movlw	0
  4609  000252  0100               	movlb	0	; () banked
  4610  000254  6FA7               	movwf	(_Timer0_Overflow_counter+1)& (0+255),b
  4611  000256  0E00               	movlw	0
  4612  000258  6FA6               	movwf	_Timer0_Overflow_counter& (0+255),b
  4613                           
  4614                           ; BSR set to: 0
  4615                           ;ISR.c: 133: if( Auto_Manual == 1 && Auto_VFD_ON == 1 && PWM_Init == 0 && Error_no == 0)
  4616  00025A  0447               	decf	_Auto_Manual,w,c
  4617  00025C  1048               	iorwf	_Auto_Manual+1,w,c
  4618  00025E  A4D8               	btfss	status,2,c
  4619  000260  D01C               	goto	i2l4174
  4620                           
  4621                           ; BSR set to: 0
  4622  000262  044B               	decf	_Auto_VFD_ON,w,c
  4623  000264  A4D8               	btfss	status,2,c
  4624  000266  D019               	goto	i2l4174
  4625                           
  4626                           ; BSR set to: 0
  4627  000268  5055               	movf	_PWM_Init,w,c
  4628  00026A  A4D8               	btfss	status,2,c
  4629  00026C  D016               	goto	i2l4174
  4630                           
  4631                           ; BSR set to: 0
  4632  00026E  0100               	movlb	0	; () banked
  4633  000270  51B8               	movf	_Error_no& (0+255),w,b
  4634  000272  A4D8               	btfss	status,2,c
  4635  000274  D012               	goto	i2l4174
  4636                           
  4637                           ; BSR set to: 0
  4638                           ;ISR.c: 134: {
  4639                           ;ISR.c: 135: PWM_Init = 1;
  4640  000276  0E01               	movlw	1
  4641  000278  6E55               	movwf	_PWM_Init,c
  4642                           
  4643                           ; BSR set to: 0
  4644                           ;ISR.c: 136: POWER_PWM();
  4645  00027A  EC39  F00E         	call	_POWER_PWM	;wreg free
  4646                           
  4647                           ;ISR.c: 137: PTIE = 1;
  4648  00027E  88A3               	bsf	4003,4,c	;volatile
  4649                           
  4650                           ;ISR.c: 138: RA6 = 0;
  4651  000280  9C80               	bcf	3968,6,c	;volatile
  4652                           
  4653                           ;ISR.c: 139: Dc_Bus_Current = 0; DC_Bus_Voltage_Low = 0; DC_Bus_Voltage_High = 0;
  4654  000282  0E00               	movlw	0
  4655  000284  6E4F               	movwf	_Dc_Bus_Current,c
  4656  000286  0E00               	movlw	0
  4657  000288  6E4E               	movwf	_DC_Bus_Voltage_Low,c
  4658  00028A  0E00               	movlw	0
  4659  00028C  6E4D               	movwf	_DC_Bus_Voltage_High,c
  4660                           
  4661                           ;ISR.c: 140: VFD_SHORT_CIRCUIT_ERROR_flag = 0; DC_Bus_Voltage_Extrem_Low = 0;
  4662  00028E  0E00               	movlw	0
  4663  000290  6E57               	movwf	_VFD_SHORT_CIRCUIT_ERROR_flag,c
  4664  000292  0E00               	movlw	0
  4665  000294  6E4C               	movwf	_DC_Bus_Voltage_Extrem_Low,c
  4666                           
  4667                           ;ISR.c: 141: LOGIC_ERROR_FLAG = 0;
  4668  000296  0E00               	movlw	0
  4669  000298  6E54               	movwf	_LOGIC_ERROR_FLAG,c
  4670  00029A                     i2l4174:
  4671                           
  4672                           ;ISR.c: 142: }
  4673                           ;ISR.c: 143: if(PWM_Init == 1 && Auto_VFD_ON == 1 && Error_no == 0)
  4674  00029A  0455               	decf	_PWM_Init,w,c
  4675  00029C  A4D8               	btfss	status,2,c
  4676  00029E  D008               	goto	i2l4182
  4677  0002A0  044B               	decf	_Auto_VFD_ON,w,c
  4678  0002A2  A4D8               	btfss	status,2,c
  4679  0002A4  D005               	goto	i2l4182
  4680  0002A6  0100               	movlb	0	; () banked
  4681  0002A8  51B8               	movf	_Error_no& (0+255),w,b
  4682  0002AA  B4D8               	btfsc	status,2,c
  4683                           
  4684                           ; BSR set to: 0
  4685                           ;ISR.c: 144: {
  4686                           ;ISR.c: 145: Auto_PWM_Cal();
  4687  0002AC  ECAF  F00C         	call	_Auto_PWM_Cal	;wreg free
  4688  0002B0                     i2l4182:
  4689                           
  4690                           ;ISR.c: 146: }
  4691                           ;ISR.c: 147: if(Auto_Manual == 1 && Auto_VFD_ON == 0)
  4692  0002B0  0447               	decf	_Auto_Manual,w,c
  4693  0002B2  1048               	iorwf	_Auto_Manual+1,w,c
  4694  0002B4  A4D8               	btfss	status,2,c
  4695  0002B6  D028               	goto	i2l4216
  4696  0002B8  504B               	movf	_Auto_VFD_ON,w,c
  4697  0002BA  A4D8               	btfss	status,2,c
  4698  0002BC  D025               	goto	i2l4216
  4699                           
  4700                           ;ISR.c: 148: {
  4701                           ;ISR.c: 149: RC2 = 1;
  4702  0002BE  8482               	bsf	3970,2,c	;volatile
  4703                           
  4704                           ;ISR.c: 150: PWMEN2 = 0;
  4705  0002C0  9C6F               	bcf	3951,6,c	;volatile
  4706                           
  4707                           ;ISR.c: 151: PWMEN1 = 0;
  4708  0002C2  9A6F               	bcf	3951,5,c	;volatile
  4709                           
  4710                           ;ISR.c: 152: PWMEN0 = 0;
  4711  0002C4  986F               	bcf	3951,4,c	;volatile
  4712                           
  4713                           ;ISR.c: 153: Desired_Frequency = (6); PWM_Init = 0;
  4714  0002C6  0E06               	movlw	6
  4715  0002C8  0100               	movlb	0	; () banked
  4716  0002CA  6FB7               	movwf	_Desired_Frequency& (0+255),b
  4717  0002CC  0E00               	movlw	0
  4718  0002CE  6E55               	movwf	_PWM_Init,c
  4719                           
  4720                           ; BSR set to: 0
  4721                           ;ISR.c: 154: TRISB0 = 0; TRISB1 = 0; TRISB2 = 0; TRISB3 = 0; TRISB4 = 0; TRISB5 = 0;
  4722  0002D0  9093               	bcf	3987,0,c	;volatile
  4723                           
  4724                           ; BSR set to: 0
  4725  0002D2  9293               	bcf	3987,1,c	;volatile
  4726                           
  4727                           ; BSR set to: 0
  4728  0002D4  9493               	bcf	3987,2,c	;volatile
  4729                           
  4730                           ; BSR set to: 0
  4731  0002D6  9693               	bcf	3987,3,c	;volatile
  4732                           
  4733                           ; BSR set to: 0
  4734  0002D8  9893               	bcf	3987,4,c	;volatile
  4735                           
  4736                           ; BSR set to: 0
  4737  0002DA  9A93               	bcf	3987,5,c	;volatile
  4738                           
  4739                           ; BSR set to: 0
  4740                           ;ISR.c: 155: RB0 = 0; RB1 = 0; RB2 = 0; RB3 = 0; RB4 = 0; RB5 = 0;
  4741  0002DC  9081               	bcf	3969,0,c	;volatile
  4742                           
  4743                           ; BSR set to: 0
  4744  0002DE  9281               	bcf	3969,1,c	;volatile
  4745                           
  4746                           ; BSR set to: 0
  4747  0002E0  9481               	bcf	3969,2,c	;volatile
  4748                           
  4749                           ; BSR set to: 0
  4750  0002E2  9681               	bcf	3969,3,c	;volatile
  4751                           
  4752                           ; BSR set to: 0
  4753  0002E4  9881               	bcf	3969,4,c	;volatile
  4754                           
  4755                           ; BSR set to: 0
  4756  0002E6  9A81               	bcf	3969,5,c	;volatile
  4757                           
  4758                           ;ISR.c: 156: DC_Bus_Voltage_Low = 0; Error_no = 0; Dc_Bus_Low_Counter = 0;
  4759  0002E8  0E00               	movlw	0
  4760  0002EA  6E4E               	movwf	_DC_Bus_Voltage_Low,c
  4761  0002EC  0E00               	movlw	0
  4762  0002EE  0100               	movlb	0	; () banked
  4763  0002F0  6FB8               	movwf	_Error_no& (0+255),b
  4764  0002F2  0E00               	movlw	0
  4765  0002F4  6E52               	movwf	_Dc_Bus_Low_Counter,c
  4766                           
  4767                           ;ISR.c: 157: Dc_Bus_High_Counter = 0; DC_Bus_Voltage_High = 0; DC_Bus_Voltage_Extrem_Low
      +                           = 0;
  4768  0002F6  0E00               	movlw	0
  4769  0002F8  6E51               	movwf	_Dc_Bus_High_Counter,c
  4770  0002FA  0E00               	movlw	0
  4771  0002FC  6E4D               	movwf	_DC_Bus_Voltage_High,c
  4772  0002FE  0E00               	movlw	0
  4773  000300  6E4C               	movwf	_DC_Bus_Voltage_Extrem_Low,c
  4774                           
  4775                           ; BSR set to: 0
  4776                           ;ISR.c: 158: RC2 = 0; LOGIC_ERROR_FLAG = 0;
  4777  000302  9482               	bcf	3970,2,c	;volatile
  4778  000304  0E00               	movlw	0
  4779  000306  6E54               	movwf	_LOGIC_ERROR_FLAG,c
  4780  000308                     i2l4216:
  4781                           
  4782                           ;ISR.c: 159: }
  4783                           ;ISR.c: 160: }
  4784                           ;ISR.c: 162: Five_Second_counter++;
  4785  000308  2A53               	incf	_Five_Second_counter,f,c
  4786                           
  4787                           ;ISR.c: 163: if(Five_Second_counter == 150)
  4788  00030A  0E96               	movlw	150
  4789  00030C  1853               	xorwf	_Five_Second_counter,w,c
  4790  00030E  A4D8               	btfss	status,2,c
  4791  000310  D019               	goto	i2l4238
  4792                           
  4793                           ;ISR.c: 164: {
  4794                           ;ISR.c: 165: if(LOGIC_ERROR_FLAG == 0 && DC_Bus_Voltage_Low == 0 && DC_Bus_Voltage_High 
      +                          == 0 && Dc_Bus_Current == 0 && VFD_SHORT_CIRCUIT_ERROR_flag == 0 && DC_Bus_Voltage_Extre
      +                          m_Low == 0)
  4795  000312  5054               	movf	_LOGIC_ERROR_FLAG,w,c
  4796  000314  A4D8               	btfss	status,2,c
  4797  000316  D014               	goto	i2l435
  4798  000318  504E               	movf	_DC_Bus_Voltage_Low,w,c
  4799  00031A  A4D8               	btfss	status,2,c
  4800  00031C  D011               	goto	i2l435
  4801  00031E  504D               	movf	_DC_Bus_Voltage_High,w,c
  4802  000320  A4D8               	btfss	status,2,c
  4803  000322  D00E               	goto	i2l435
  4804  000324  504F               	movf	_Dc_Bus_Current,w,c
  4805  000326  A4D8               	btfss	status,2,c
  4806  000328  D00B               	goto	i2l435
  4807  00032A  5057               	movf	_VFD_SHORT_CIRCUIT_ERROR_flag,w,c
  4808  00032C  A4D8               	btfss	status,2,c
  4809  00032E  D008               	goto	i2l435
  4810  000330  504C               	movf	_DC_Bus_Voltage_Extrem_Low,w,c
  4811  000332  A4D8               	btfss	status,2,c
  4812  000334  D005               	goto	i2l435
  4813                           
  4814                           ;ISR.c: 166: {
  4815                           ;ISR.c: 167: Error_no = 0;
  4816  000336  0E00               	movlw	0
  4817  000338  0100               	movlb	0	; () banked
  4818  00033A  6FB8               	movwf	_Error_no& (0+255),b
  4819                           
  4820                           ; BSR set to: 0
  4821                           ;ISR.c: 168: RA6 = 0;
  4822  00033C  9C80               	bcf	3968,6,c	;volatile
  4823                           
  4824                           ; BSR set to: 0
  4825                           ;ISR.c: 169: RC3 = 0;
  4826  00033E  9682               	bcf	3970,3,c	;volatile
  4827  000340                     i2l435:
  4828                           
  4829                           ;ISR.c: 170: }
  4830                           ;ISR.c: 171: Five_Second_counter = 0;
  4831  000340  0E00               	movlw	0
  4832  000342  6E53               	movwf	_Five_Second_counter,c
  4833  000344                     i2l4238:
  4834                           
  4835                           ;ISR.c: 172: }
  4836                           ;ISR.c: 173: if(RA4 == 0 && RA2 != 0 && Auto_Manual == 0)
  4837  000344  A880               	btfss	3968,4,c	;volatile
  4838  000346  A480               	btfss	3968,2,c	;volatile
  4839  000348  D021               	goto	i2l438
  4840  00034A  5047               	movf	_Auto_Manual,w,c
  4841  00034C  1048               	iorwf	_Auto_Manual+1,w,c
  4842  00034E  A4D8               	btfss	status,2,c
  4843  000350  D01D               	goto	i2l438
  4844                           
  4845                           ;ISR.c: 174: {
  4846                           ;ISR.c: 175: if(ON_OFF == 1)
  4847  000352  0449               	decf	_ON_OFF,w,c
  4848  000354  104A               	iorwf	_ON_OFF+1,w,c
  4849  000356  A4D8               	btfss	status,2,c
  4850  000358  D019               	goto	i2l438
  4851                           
  4852                           ;ISR.c: 176: {
  4853                           ;ISR.c: 177: PWMEN2 = 0;
  4854  00035A  9C6F               	bcf	3951,6,c	;volatile
  4855                           
  4856                           ;ISR.c: 178: PWMEN1 = 0;
  4857  00035C  9A6F               	bcf	3951,5,c	;volatile
  4858                           
  4859                           ;ISR.c: 179: PWMEN0 = 0;
  4860  00035E  986F               	bcf	3951,4,c	;volatile
  4861                           
  4862                           ;ISR.c: 181: TRISB0 = 0; TRISB1 = 0; TRISB2 = 0; TRISB3 = 0; TRISB4 = 0; TRISB5 = 0;
  4863  000360  9093               	bcf	3987,0,c	;volatile
  4864  000362  9293               	bcf	3987,1,c	;volatile
  4865  000364  9493               	bcf	3987,2,c	;volatile
  4866  000366  9693               	bcf	3987,3,c	;volatile
  4867  000368  9893               	bcf	3987,4,c	;volatile
  4868  00036A  9A93               	bcf	3987,5,c	;volatile
  4869                           
  4870                           ;ISR.c: 182: RB0 = 0; RB1 = 0; RB2 = 0; RB3 = 0; RB4 = 0; RB5 = 0;
  4871  00036C  9081               	bcf	3969,0,c	;volatile
  4872  00036E  9281               	bcf	3969,1,c	;volatile
  4873  000370  9481               	bcf	3969,2,c	;volatile
  4874  000372  9681               	bcf	3969,3,c	;volatile
  4875  000374  9881               	bcf	3969,4,c	;volatile
  4876  000376  9A81               	bcf	3969,5,c	;volatile
  4877                           
  4878                           ;ISR.c: 183: ON_OFF = 0;
  4879  000378  0E00               	movlw	0
  4880  00037A  6E4A               	movwf	_ON_OFF+1,c
  4881  00037C  0E00               	movlw	0
  4882  00037E  6E49               	movwf	_ON_OFF,c
  4883                           
  4884                           ;ISR.c: 184: Frequency = 5;
  4885  000380  0E00               	movlw	0
  4886  000382  6E5C               	movwf	_Frequency,c
  4887  000384  0EA0               	movlw	160
  4888  000386  6E5D               	movwf	_Frequency+1,c
  4889  000388  0E40               	movlw	64
  4890  00038A  6E5E               	movwf	_Frequency+2,c
  4891  00038C                     i2l438:
  4892  00038C  C042  FFF5         	movff	??_ISR+15,tablat
  4893  000390  C041  FFF8         	movff	??_ISR+14,tblptru
  4894  000394  C040  FFF7         	movff	??_ISR+13,tblptrh
  4895  000398  C03F  FFF6         	movff	??_ISR+12,tblptrl
  4896  00039C  C03E  FFF4         	movff	??_ISR+11,prodh
  4897  0003A0  C03D  FFF3         	movff	??_ISR+10,prodl
  4898  0003A4  C03C  FFDA         	movff	??_ISR+9,fsr2h
  4899  0003A8  C03B  FFD9         	movff	??_ISR+8,fsr2l
  4900  0003AC  C03A  FFE2         	movff	??_ISR+7,fsr1h
  4901  0003B0  C039  FFE1         	movff	??_ISR+6,fsr1l
  4902  0003B4  C038  FFEA         	movff	??_ISR+5,fsr0h
  4903  0003B8  C037  FFE9         	movff	??_ISR+4,fsr0l
  4904  0003BC  C036  FFFB         	movff	??_ISR+3,pclatu
  4905  0003C0  C035  FFFA         	movff	??_ISR+2,pclath
  4906  0003C4  925F               	bcf	btemp,1,c	;clear compiler interrupt flag (level 2)
  4907  0003C6  0011               	retfie		f
  4908  0003C8                     __end_of_ISR:
  4909                           	opt stack 0
  4910                           pclatu	equ	0xFFB
  4911                           pclath	equ	0xFFA
  4912                           tblptru	equ	0xFF8
  4913                           tblptrh	equ	0xFF7
  4914                           tblptrl	equ	0xFF6
  4915                           tablat	equ	0xFF5
  4916                           prodh	equ	0xFF4
  4917                           prodl	equ	0xFF3
  4918                           intcon	equ	0xFF2
  4919                           postinc0	equ	0xFEE
  4920                           fsr0h	equ	0xFEA
  4921                           fsr0l	equ	0xFE9
  4922                           wreg	equ	0xFE8
  4923                           postdec1	equ	0xFE5
  4924                           fsr1h	equ	0xFE2
  4925                           fsr1l	equ	0xFE1
  4926                           postinc2	equ	0xFDE
  4927                           postdec2	equ	0xFDD
  4928                           fsr2h	equ	0xFDA
  4929                           fsr2l	equ	0xFD9
  4930                           status	equ	0xFD8
  4931                           
  4932 ;; *************** function _Voltage_Error_Trigger *****************
  4933 ;; Defined at:
  4934 ;;		line 17 in file "ONE_SEC_FUNCTION.c"
  4935 ;; Parameters:    Size  Location     Type
  4936 ;;		None
  4937 ;; Auto vars:     Size  Location     Type
  4938 ;;		None
  4939 ;; Return value:  Size  Location     Type
  4940 ;;                  1    wreg      void 
  4941 ;; Registers used:
  4942 ;;		wreg, status,2, status,0, cstack
  4943 ;; Tracked objects:
  4944 ;;		On entry : 0/0
  4945 ;;		On exit  : 0/0
  4946 ;;		Unchanged: 0/0
  4947 ;; Data sizes:     COMRAM   BANK0   BANK1   BANK2
  4948 ;;      Params:         0       0       0       0
  4949 ;;      Locals:         0       0       0       0
  4950 ;;      Temps:          0       0       0       0
  4951 ;;      Totals:         0       0       0       0
  4952 ;;Total ram usage:        0 bytes
  4953 ;; Hardware stack levels used:    1
  4954 ;; Hardware stack levels required when called:    1
  4955 ;; This function calls:
  4956 ;;		i2___ftge
  4957 ;; This function is called by:
  4958 ;;		_ISR
  4959 ;; This function uses a non-reentrant model
  4960 ;;
  4961                           
  4962                           	psect	text17
  4963  001610                     __ptext17:
  4964                           	opt stack 0
  4965  001610                     _Voltage_Error_Trigger:
  4966                           	opt stack 26
  4967                           
  4968                           ;ONE_SEC_FUNCTION.c: 19: if(R_Volt_1 <= (400))
  4969                           
  4970                           ;incstack = 0
  4971  001610  0E00               	movlw	0
  4972  001612  6E01               	movwf	i2___ftge@ff1,c
  4973  001614  0EC8               	movlw	200
  4974  001616  6E02               	movwf	i2___ftge@ff1+1,c
  4975  001618  0E43               	movlw	67
  4976  00161A  6E03               	movwf	i2___ftge@ff1+2,c
  4977  00161C  C087  F004         	movff	_R_Volt_1,i2___ftge@ff2
  4978  001620  C088  F005         	movff	_R_Volt_1+1,i2___ftge@ff2+1
  4979  001624  C089  F006         	movff	_R_Volt_1+2,i2___ftge@ff2+2
  4980  001628  ECF8  F00C         	call	i2___ftge	;wreg free
  4981  00162C  A0D8               	btfss	status,0,c
  4982  00162E  D00F               	goto	i2l3606
  4983                           
  4984                           ;ONE_SEC_FUNCTION.c: 20: {
  4985                           ;ONE_SEC_FUNCTION.c: 21: Dc_Bus_Low_Counter++;
  4986  001630  2A52               	incf	_Dc_Bus_Low_Counter,f,c
  4987                           
  4988                           ;ONE_SEC_FUNCTION.c: 22: if(Dc_Bus_Low_Counter >= 10)
  4989  001632  0E09               	movlw	9
  4990  001634  6452               	cpfsgt	_Dc_Bus_Low_Counter,c
  4991  001636  D010               	goto	i2l3610
  4992                           
  4993                           ;ONE_SEC_FUNCTION.c: 23: {
  4994                           ;ONE_SEC_FUNCTION.c: 24: Dc_Bus_Low_Counter =0;
  4995  001638  0E00               	movlw	0
  4996  00163A  6E52               	movwf	_Dc_Bus_Low_Counter,c
  4997                           
  4998                           ;ONE_SEC_FUNCTION.c: 25: DC_Bus_Voltage_Low = 1;
  4999  00163C  0E01               	movlw	1
  5000  00163E  6E4E               	movwf	_DC_Bus_Voltage_Low,c
  5001                           
  5002                           ;ONE_SEC_FUNCTION.c: 26: Error_no = 3;
  5003  001640  0E03               	movlw	3
  5004  001642  0100               	movlb	0	; () banked
  5005  001644  6FB8               	movwf	_Error_no& (0+255),b
  5006                           
  5007                           ; BSR set to: 0
  5008                           ;ONE_SEC_FUNCTION.c: 27: RC3 = ~RC3;
  5009  001646  B682               	btfsc	3970,3,c	;volatile
  5010  001648  D006               	goto	i2l3608
  5011  00164A  8682               	bsf	3970,3,c	;volatile
  5012  00164C  D005               	goto	i2l3610
  5013  00164E                     i2l3606:
  5014                           
  5015                           ;ONE_SEC_FUNCTION.c: 30: else
  5016                           ;ONE_SEC_FUNCTION.c: 31: {
  5017                           ;ONE_SEC_FUNCTION.c: 32: DC_Bus_Voltage_Low = 0;
  5018  00164E  0E00               	movlw	0
  5019  001650  6E4E               	movwf	_DC_Bus_Voltage_Low,c
  5020                           
  5021                           ;ONE_SEC_FUNCTION.c: 33: Dc_Bus_Low_Counter = 0;
  5022  001652  0E00               	movlw	0
  5023  001654  6E52               	movwf	_Dc_Bus_Low_Counter,c
  5024  001656                     i2l3608:
  5025                           
  5026                           ;ONE_SEC_FUNCTION.c: 34: RC3 = 0;
  5027  001656  9682               	bcf	3970,3,c	;volatile
  5028  001658                     i2l3610:
  5029                           
  5030                           ;ONE_SEC_FUNCTION.c: 35: }
  5031                           ;ONE_SEC_FUNCTION.c: 36: if(R_Volt_1 <= (100))
  5032  001658  0E00               	movlw	0
  5033  00165A  6E01               	movwf	i2___ftge@ff1,c
  5034  00165C  0EC8               	movlw	200
  5035  00165E  6E02               	movwf	i2___ftge@ff1+1,c
  5036  001660  0E42               	movlw	66
  5037  001662  6E03               	movwf	i2___ftge@ff1+2,c
  5038  001664  C087  F004         	movff	_R_Volt_1,i2___ftge@ff2
  5039  001668  C088  F005         	movff	_R_Volt_1+1,i2___ftge@ff2+1
  5040  00166C  C089  F006         	movff	_R_Volt_1+2,i2___ftge@ff2+2
  5041  001670  ECF8  F00C         	call	i2___ftge	;wreg free
  5042  001674  A0D8               	btfss	status,0,c
  5043  001676  D00F               	goto	i2l3620
  5044                           
  5045                           ;ONE_SEC_FUNCTION.c: 37: {
  5046                           ;ONE_SEC_FUNCTION.c: 38: Dc_Bus_Extrem_Low_Counter++;
  5047  001678  2A50               	incf	_Dc_Bus_Extrem_Low_Counter,f,c
  5048                           
  5049                           ;ONE_SEC_FUNCTION.c: 39: if(Dc_Bus_Extrem_Low_Counter >= 1)
  5050  00167A  5050               	movf	_Dc_Bus_Extrem_Low_Counter,w,c
  5051  00167C  B4D8               	btfsc	status,2,c
  5052  00167E  D010               	goto	i2l3624
  5053                           
  5054                           ;ONE_SEC_FUNCTION.c: 40: {
  5055                           ;ONE_SEC_FUNCTION.c: 41: Dc_Bus_Extrem_Low_Counter =0;
  5056  001680  0E00               	movlw	0
  5057  001682  6E50               	movwf	_Dc_Bus_Extrem_Low_Counter,c
  5058                           
  5059                           ;ONE_SEC_FUNCTION.c: 42: DC_Bus_Voltage_Extrem_Low = 1;
  5060  001684  0E01               	movlw	1
  5061  001686  6E4C               	movwf	_DC_Bus_Voltage_Extrem_Low,c
  5062                           
  5063                           ;ONE_SEC_FUNCTION.c: 43: Error_no = 7;
  5064  001688  0E07               	movlw	7
  5065  00168A  0100               	movlb	0	; () banked
  5066  00168C  6FB8               	movwf	_Error_no& (0+255),b
  5067                           
  5068                           ; BSR set to: 0
  5069                           ;ONE_SEC_FUNCTION.c: 44: RC3 = ~RC3;
  5070  00168E  B682               	btfsc	3970,3,c	;volatile
  5071  001690  D006               	goto	i2l3622
  5072  001692  8682               	bsf	3970,3,c	;volatile
  5073  001694  D005               	goto	i2l3624
  5074  001696                     i2l3620:
  5075                           
  5076                           ;ONE_SEC_FUNCTION.c: 47: else
  5077                           ;ONE_SEC_FUNCTION.c: 48: {
  5078                           ;ONE_SEC_FUNCTION.c: 49: DC_Bus_Voltage_Extrem_Low = 0;
  5079  001696  0E00               	movlw	0
  5080  001698  6E4C               	movwf	_DC_Bus_Voltage_Extrem_Low,c
  5081                           
  5082                           ;ONE_SEC_FUNCTION.c: 50: Dc_Bus_Extrem_Low_Counter = 0;
  5083  00169A  0E00               	movlw	0
  5084  00169C  6E50               	movwf	_Dc_Bus_Extrem_Low_Counter,c
  5085  00169E                     i2l3622:
  5086                           
  5087                           ;ONE_SEC_FUNCTION.c: 51: RC3 = 0;
  5088  00169E  9682               	bcf	3970,3,c	;volatile
  5089  0016A0                     i2l3624:
  5090                           
  5091                           ;ONE_SEC_FUNCTION.c: 52: }
  5092                           ;ONE_SEC_FUNCTION.c: 53: if(R_Volt_1 >= (700))
  5093  0016A0  C087  F001         	movff	_R_Volt_1,i2___ftge@ff1
  5094  0016A4  C088  F002         	movff	_R_Volt_1+1,i2___ftge@ff1+1
  5095  0016A8  C089  F003         	movff	_R_Volt_1+2,i2___ftge@ff1+2
  5096  0016AC  0E00               	movlw	0
  5097  0016AE  6E04               	movwf	i2___ftge@ff2,c
  5098  0016B0  0E2F               	movlw	47
  5099  0016B2  6E05               	movwf	i2___ftge@ff2+1,c
  5100  0016B4  0E44               	movlw	68
  5101  0016B6  6E06               	movwf	i2___ftge@ff2+2,c
  5102  0016B8  ECF8  F00C         	call	i2___ftge	;wreg free
  5103  0016BC  A0D8               	btfss	status,0,c
  5104  0016BE  D00F               	goto	i2l3634
  5105                           
  5106                           ;ONE_SEC_FUNCTION.c: 54: {
  5107                           ;ONE_SEC_FUNCTION.c: 55: Dc_Bus_High_Counter++;
  5108  0016C0  2A51               	incf	_Dc_Bus_High_Counter,f,c
  5109                           
  5110                           ;ONE_SEC_FUNCTION.c: 56: if(Dc_Bus_High_Counter >= 4)
  5111  0016C2  0E03               	movlw	3
  5112  0016C4  6451               	cpfsgt	_Dc_Bus_High_Counter,c
  5113  0016C6  D010               	goto	i2l3638
  5114                           
  5115                           ;ONE_SEC_FUNCTION.c: 57: {
  5116                           ;ONE_SEC_FUNCTION.c: 58: Dc_Bus_High_Counter =0;
  5117  0016C8  0E00               	movlw	0
  5118  0016CA  6E51               	movwf	_Dc_Bus_High_Counter,c
  5119                           
  5120                           ;ONE_SEC_FUNCTION.c: 59: DC_Bus_Voltage_High = 1;
  5121  0016CC  0E01               	movlw	1
  5122  0016CE  6E4D               	movwf	_DC_Bus_Voltage_High,c
  5123                           
  5124                           ;ONE_SEC_FUNCTION.c: 60: Error_no = 3;
  5125  0016D0  0E03               	movlw	3
  5126  0016D2  0100               	movlb	0	; () banked
  5127  0016D4  6FB8               	movwf	_Error_no& (0+255),b
  5128                           
  5129                           ; BSR set to: 0
  5130                           ;ONE_SEC_FUNCTION.c: 61: RC3 = ~RC3;
  5131  0016D6  B682               	btfsc	3970,3,c	;volatile
  5132  0016D8  D006               	goto	i2l3636
  5133  0016DA  8682               	bsf	3970,3,c	;volatile
  5134  0016DC  D005               	goto	i2l3638
  5135  0016DE                     i2l3634:
  5136                           
  5137                           ;ONE_SEC_FUNCTION.c: 64: else
  5138                           ;ONE_SEC_FUNCTION.c: 65: {
  5139                           ;ONE_SEC_FUNCTION.c: 66: DC_Bus_Voltage_High = 0;
  5140  0016DE  0E00               	movlw	0
  5141  0016E0  6E4D               	movwf	_DC_Bus_Voltage_High,c
  5142                           
  5143                           ;ONE_SEC_FUNCTION.c: 67: Dc_Bus_High_Counter = 0;
  5144  0016E2  0E00               	movlw	0
  5145  0016E4  6E51               	movwf	_Dc_Bus_High_Counter,c
  5146  0016E6                     i2l3636:
  5147                           
  5148                           ;ONE_SEC_FUNCTION.c: 68: RC3 = 0;
  5149  0016E6  9682               	bcf	3970,3,c	;volatile
  5150  0016E8                     i2l3638:
  5151                           
  5152                           ;ONE_SEC_FUNCTION.c: 69: }
  5153                           ;ONE_SEC_FUNCTION.c: 70: if(RC1 == 1)
  5154  0016E8  A282               	btfss	3970,1,c	;volatile
  5155  0016EA  0012               	return	
  5156                           
  5157                           ;ONE_SEC_FUNCTION.c: 71: {
  5158                           ;ONE_SEC_FUNCTION.c: 72: Error_no = 6;
  5159  0016EC  0E06               	movlw	6
  5160  0016EE  0100               	movlb	0	; () banked
  5161  0016F0  6FB8               	movwf	_Error_no& (0+255),b
  5162                           
  5163                           ;ONE_SEC_FUNCTION.c: 73: VFD_SHORT_CIRCUIT = 1;
  5164  0016F2  0E01               	movlw	1
  5165  0016F4  6E56               	movwf	_VFD_SHORT_CIRCUIT,c
  5166                           
  5167                           ; BSR set to: 0
  5168                           ;ONE_SEC_FUNCTION.c: 74: RC3 = ~RC3;
  5169  0016F6  B682               	btfsc	3970,3,c	;volatile
  5170  0016F8  D002               	goto	i2u309_40
  5171  0016FA  8682               	bsf	3970,3,c	;volatile
  5172  0016FC  0012               	return	
  5173  0016FE                     i2u309_40:
  5174  0016FE  9682               	bcf	3970,3,c	;volatile
  5175  001700  0012               	return	
  5176  001702                     __end_of_Voltage_Error_Trigger:
  5177                           	opt stack 0
  5178                           pclatu	equ	0xFFB
  5179                           pclath	equ	0xFFA
  5180                           tblptru	equ	0xFF8
  5181                           tblptrh	equ	0xFF7
  5182                           tblptrl	equ	0xFF6
  5183                           tablat	equ	0xFF5
  5184                           prodh	equ	0xFF4
  5185                           prodl	equ	0xFF3
  5186                           intcon	equ	0xFF2
  5187                           postinc0	equ	0xFEE
  5188                           fsr0h	equ	0xFEA
  5189                           fsr0l	equ	0xFE9
  5190                           wreg	equ	0xFE8
  5191                           postdec1	equ	0xFE5
  5192                           fsr1h	equ	0xFE2
  5193                           fsr1l	equ	0xFE1
  5194                           postinc2	equ	0xFDE
  5195                           postdec2	equ	0xFDD
  5196                           fsr2h	equ	0xFDA
  5197                           fsr2l	equ	0xFD9
  5198                           status	equ	0xFD8
  5199                           
  5200 ;; *************** function _VFD_SHORT_CIRCUIT_ERROR *****************
  5201 ;; Defined at:
  5202 ;;		line 92 in file "ONE_SEC_FUNCTION.c"
  5203 ;; Parameters:    Size  Location     Type
  5204 ;;		None
  5205 ;; Auto vars:     Size  Location     Type
  5206 ;;		None
  5207 ;; Return value:  Size  Location     Type
  5208 ;;                  1    wreg      void 
  5209 ;; Registers used:
  5210 ;;		wreg, status,2
  5211 ;; Tracked objects:
  5212 ;;		On entry : 0/0
  5213 ;;		On exit  : 0/0
  5214 ;;		Unchanged: 0/0
  5215 ;; Data sizes:     COMRAM   BANK0   BANK1   BANK2
  5216 ;;      Params:         0       0       0       0
  5217 ;;      Locals:         0       0       0       0
  5218 ;;      Temps:          0       0       0       0
  5219 ;;      Totals:         0       0       0       0
  5220 ;;Total ram usage:        0 bytes
  5221 ;; Hardware stack levels used:    1
  5222 ;; This function calls:
  5223 ;;		Nothing
  5224 ;; This function is called by:
  5225 ;;		_ISR
  5226 ;; This function uses a non-reentrant model
  5227 ;;
  5228                           
  5229                           	psect	text18
  5230  001CBA                     __ptext18:
  5231                           	opt stack 0
  5232  001CBA                     _VFD_SHORT_CIRCUIT_ERROR:
  5233                           	opt stack 27
  5234                           
  5235                           ;ONE_SEC_FUNCTION.c: 94: if(RC1 == 1)
  5236                           
  5237                           ;incstack = 0
  5238  001CBA  A282               	btfss	3970,1,c	;volatile
  5239  001CBC  D00B               	goto	i2l3526
  5240                           
  5241                           ;ONE_SEC_FUNCTION.c: 95: {
  5242                           ;ONE_SEC_FUNCTION.c: 96: Error_no = 6;
  5243  001CBE  0E06               	movlw	6
  5244  001CC0  0100               	movlb	0	; () banked
  5245  001CC2  6FB8               	movwf	_Error_no& (0+255),b
  5246                           
  5247                           ;ONE_SEC_FUNCTION.c: 97: VFD_SHORT_CIRCUIT_ERROR_flag = 1;
  5248  001CC4  0E01               	movlw	1
  5249  001CC6  6E57               	movwf	_VFD_SHORT_CIRCUIT_ERROR_flag,c
  5250                           
  5251                           ; BSR set to: 0
  5252                           ;ONE_SEC_FUNCTION.c: 98: RC3 = ~RC3;
  5253  001CC8  B682               	btfsc	3970,3,c	;volatile
  5254  001CCA  D002               	goto	i2u276_40
  5255  001CCC  8682               	bsf	3970,3,c	;volatile
  5256  001CCE  0012               	return	
  5257  001CD0                     i2u276_40:
  5258  001CD0  9682               	bcf	3970,3,c	;volatile
  5259                           
  5260                           ;ONE_SEC_FUNCTION.c: 99: }
  5261  001CD2  0012               	return	
  5262  001CD4                     i2l3526:
  5263                           
  5264                           ;ONE_SEC_FUNCTION.c: 100: else
  5265                           ;ONE_SEC_FUNCTION.c: 101: {
  5266                           ;ONE_SEC_FUNCTION.c: 102: VFD_SHORT_CIRCUIT_ERROR_flag = 0;
  5267  001CD4  0E00               	movlw	0
  5268  001CD6  6E57               	movwf	_VFD_SHORT_CIRCUIT_ERROR_flag,c
  5269                           
  5270                           ;ONE_SEC_FUNCTION.c: 103: RC3 = 0;
  5271  001CD8  9682               	bcf	3970,3,c	;volatile
  5272  001CDA  0012               	return	
  5273  001CDC                     __end_of_VFD_SHORT_CIRCUIT_ERROR:
  5274                           	opt stack 0
  5275                           pclatu	equ	0xFFB
  5276                           pclath	equ	0xFFA
  5277                           tblptru	equ	0xFF8
  5278                           tblptrh	equ	0xFF7
  5279                           tblptrl	equ	0xFF6
  5280                           tablat	equ	0xFF5
  5281                           prodh	equ	0xFF4
  5282                           prodl	equ	0xFF3
  5283                           intcon	equ	0xFF2
  5284                           postinc0	equ	0xFEE
  5285                           fsr0h	equ	0xFEA
  5286                           fsr0l	equ	0xFE9
  5287                           wreg	equ	0xFE8
  5288                           postdec1	equ	0xFE5
  5289                           fsr1h	equ	0xFE2
  5290                           fsr1l	equ	0xFE1
  5291                           postinc2	equ	0xFDE
  5292                           postdec2	equ	0xFDD
  5293                           fsr2h	equ	0xFDA
  5294                           fsr2l	equ	0xFD9
  5295                           status	equ	0xFD8
  5296                           
  5297 ;; *************** function _VFD_Current *****************
  5298 ;; Defined at:
  5299 ;;		line 78 in file "ONE_SEC_FUNCTION.c"
  5300 ;; Parameters:    Size  Location     Type
  5301 ;;		None
  5302 ;; Auto vars:     Size  Location     Type
  5303 ;;		None
  5304 ;; Return value:  Size  Location     Type
  5305 ;;                  1    wreg      void 
  5306 ;; Registers used:
  5307 ;;		wreg, status,2, status,0, cstack
  5308 ;; Tracked objects:
  5309 ;;		On entry : 0/0
  5310 ;;		On exit  : 0/0
  5311 ;;		Unchanged: 0/0
  5312 ;; Data sizes:     COMRAM   BANK0   BANK1   BANK2
  5313 ;;      Params:         0       0       0       0
  5314 ;;      Locals:         0       0       0       0
  5315 ;;      Temps:          0       0       0       0
  5316 ;;      Totals:         0       0       0       0
  5317 ;;Total ram usage:        0 bytes
  5318 ;; Hardware stack levels used:    1
  5319 ;; Hardware stack levels required when called:    1
  5320 ;; This function calls:
  5321 ;;		i2___ftge
  5322 ;; This function is called by:
  5323 ;;		_ISR
  5324 ;; This function uses a non-reentrant model
  5325 ;;
  5326                           
  5327                           	psect	text19
  5328  001B7E                     __ptext19:
  5329                           	opt stack 0
  5330  001B7E                     _VFD_Current:
  5331                           	opt stack 26
  5332                           
  5333                           ;ONE_SEC_FUNCTION.c: 80: if(R_Current_1 >= (10))
  5334                           
  5335                           ;incstack = 0
  5336  001B7E  C07E  F001         	movff	_R_Current_1,i2___ftge@ff1
  5337  001B82  C07F  F002         	movff	_R_Current_1+1,i2___ftge@ff1+1
  5338  001B86  C080  F003         	movff	_R_Current_1+2,i2___ftge@ff1+2
  5339  001B8A  0E00               	movlw	0
  5340  001B8C  6E04               	movwf	i2___ftge@ff2,c
  5341  001B8E  0E20               	movlw	32
  5342  001B90  6E05               	movwf	i2___ftge@ff2+1,c
  5343  001B92  0E41               	movlw	65
  5344  001B94  6E06               	movwf	i2___ftge@ff2+2,c
  5345  001B96  ECF8  F00C         	call	i2___ftge	;wreg free
  5346  001B9A  A0D8               	btfss	status,0,c
  5347  001B9C  D00B               	goto	i2l3516
  5348                           
  5349                           ;ONE_SEC_FUNCTION.c: 81: {
  5350                           ;ONE_SEC_FUNCTION.c: 82: Dc_Bus_Current = 1;
  5351  001B9E  0E01               	movlw	1
  5352  001BA0  6E4F               	movwf	_Dc_Bus_Current,c
  5353                           
  5354                           ;ONE_SEC_FUNCTION.c: 83: Error_no = 8;
  5355  001BA2  0E08               	movlw	8
  5356  001BA4  0100               	movlb	0	; () banked
  5357  001BA6  6FB8               	movwf	_Error_no& (0+255),b
  5358                           
  5359                           ; BSR set to: 0
  5360                           ;ONE_SEC_FUNCTION.c: 84: RC3 = ~RC3;
  5361  001BA8  B682               	btfsc	3970,3,c	;volatile
  5362  001BAA  D002               	goto	i2u273_40
  5363  001BAC  8682               	bsf	3970,3,c	;volatile
  5364  001BAE  0012               	return	
  5365  001BB0                     i2u273_40:
  5366  001BB0  9682               	bcf	3970,3,c	;volatile
  5367                           
  5368                           ;ONE_SEC_FUNCTION.c: 85: }
  5369  001BB2  0012               	return	
  5370  001BB4                     i2l3516:
  5371                           
  5372                           ;ONE_SEC_FUNCTION.c: 86: else
  5373                           ;ONE_SEC_FUNCTION.c: 87: {
  5374                           ;ONE_SEC_FUNCTION.c: 88: Dc_Bus_Current = 0;
  5375  001BB4  0E00               	movlw	0
  5376  001BB6  6E4F               	movwf	_Dc_Bus_Current,c
  5377                           
  5378                           ;ONE_SEC_FUNCTION.c: 89: RC3 = 0;;
  5379  001BB8  9682               	bcf	3970,3,c	;volatile
  5380  001BBA  0012               	return	
  5381  001BBC                     __end_of_VFD_Current:
  5382                           	opt stack 0
  5383                           pclatu	equ	0xFFB
  5384                           pclath	equ	0xFFA
  5385                           tblptru	equ	0xFF8
  5386                           tblptrh	equ	0xFF7
  5387                           tblptrl	equ	0xFF6
  5388                           tablat	equ	0xFF5
  5389                           prodh	equ	0xFF4
  5390                           prodl	equ	0xFF3
  5391                           intcon	equ	0xFF2
  5392                           postinc0	equ	0xFEE
  5393                           fsr0h	equ	0xFEA
  5394                           fsr0l	equ	0xFE9
  5395                           wreg	equ	0xFE8
  5396                           postdec1	equ	0xFE5
  5397                           fsr1h	equ	0xFE2
  5398                           fsr1l	equ	0xFE1
  5399                           postinc2	equ	0xFDE
  5400                           postdec2	equ	0xFDD
  5401                           fsr2h	equ	0xFDA
  5402                           fsr2l	equ	0xFD9
  5403                           status	equ	0xFD8
  5404                           
  5405 ;; *************** function _Push_Button *****************
  5406 ;; Defined at:
  5407 ;;		line 119 in file "ONE_SEC_FUNCTION.c"
  5408 ;; Parameters:    Size  Location     Type
  5409 ;;		None
  5410 ;; Auto vars:     Size  Location     Type
  5411 ;;		None
  5412 ;; Return value:  Size  Location     Type
  5413 ;;                  1    wreg      void 
  5414 ;; Registers used:
  5415 ;;		wreg, status,2, status,0, cstack
  5416 ;; Tracked objects:
  5417 ;;		On entry : 0/0
  5418 ;;		On exit  : 0/0
  5419 ;;		Unchanged: 0/0
  5420 ;; Data sizes:     COMRAM   BANK0   BANK1   BANK2
  5421 ;;      Params:         0       0       0       0
  5422 ;;      Locals:         0       0       0       0
  5423 ;;      Temps:          0       0       0       0
  5424 ;;      Totals:         0       0       0       0
  5425 ;;Total ram usage:        0 bytes
  5426 ;; Hardware stack levels used:    1
  5427 ;; Hardware stack levels required when called:    3
  5428 ;; This function calls:
  5429 ;;		_Cal
  5430 ;;		_POWER_PWM
  5431 ;;		i2___ftadd
  5432 ;;		i2___ftge
  5433 ;; This function is called by:
  5434 ;;		_ISR
  5435 ;; This function uses a non-reentrant model
  5436 ;;
  5437                           
  5438                           	psect	text20
  5439  0011F4                     __ptext20:
  5440                           	opt stack 0
  5441  0011F4                     _Push_Button:
  5442                           	opt stack 24
  5443                           
  5444                           ;ONE_SEC_FUNCTION.c: 121: if(RA2 == 0 && RA4 != 0 && Auto_Manual == 0)
  5445                           
  5446                           ;incstack = 0
  5447  0011F4  A480               	btfss	3968,2,c	;volatile
  5448  0011F6  A880               	btfss	3968,4,c	;volatile
  5449  0011F8  D030               	goto	i2l3552
  5450  0011FA  5047               	movf	_Auto_Manual,w,c
  5451  0011FC  1048               	iorwf	_Auto_Manual+1,w,c
  5452  0011FE  A4D8               	btfss	status,2,c
  5453  001200  D02C               	goto	i2l3552
  5454                           
  5455                           ;ONE_SEC_FUNCTION.c: 122: {
  5456                           ;ONE_SEC_FUNCTION.c: 123: Frequency = Frequency + 1;
  5457  001202  C05C  F018         	movff	_Frequency,i2___ftadd@f1
  5458  001206  C05D  F019         	movff	_Frequency+1,i2___ftadd@f1+1
  5459  00120A  C05E  F01A         	movff	_Frequency+2,i2___ftadd@f1+2
  5460  00120E  0E00               	movlw	0
  5461  001210  6E1B               	movwf	i2___ftadd@f2,c
  5462  001212  0E80               	movlw	128
  5463  001214  6E1C               	movwf	i2___ftadd@f2+1,c
  5464  001216  0E3F               	movlw	63
  5465  001218  6E1D               	movwf	i2___ftadd@f2+2,c
  5466  00121A  EC2D  F006         	call	i2___ftadd	;wreg free
  5467  00121E  C018  F05C         	movff	?i2___ftadd,_Frequency
  5468  001222  C019  F05D         	movff	?i2___ftadd+1,_Frequency+1
  5469  001226  C01A  F05E         	movff	?i2___ftadd+2,_Frequency+2
  5470                           
  5471                           ;ONE_SEC_FUNCTION.c: 124: if(Frequency >= 55)
  5472  00122A  C05C  F001         	movff	_Frequency,i2___ftge@ff1
  5473  00122E  C05D  F002         	movff	_Frequency+1,i2___ftge@ff1+1
  5474  001232  C05E  F003         	movff	_Frequency+2,i2___ftge@ff1+2
  5475  001236  0E00               	movlw	0
  5476  001238  6E04               	movwf	i2___ftge@ff2,c
  5477  00123A  0E5C               	movlw	92
  5478  00123C  6E05               	movwf	i2___ftge@ff2+1,c
  5479  00123E  0E42               	movlw	66
  5480  001240  6E06               	movwf	i2___ftge@ff2+2,c
  5481  001242  ECF8  F00C         	call	i2___ftge	;wreg free
  5482  001246  A0D8               	btfss	status,0,c
  5483  001248  D006               	goto	i2l3550
  5484                           
  5485                           ;ONE_SEC_FUNCTION.c: 125: {
  5486                           ;ONE_SEC_FUNCTION.c: 126: Frequency = 55;
  5487  00124A  0E00               	movlw	0
  5488  00124C  6E5C               	movwf	_Frequency,c
  5489  00124E  0E5C               	movlw	92
  5490  001250  6E5D               	movwf	_Frequency+1,c
  5491  001252  0E42               	movlw	66
  5492  001254  6E5E               	movwf	_Frequency+2,c
  5493  001256                     i2l3550:
  5494                           
  5495                           ;ONE_SEC_FUNCTION.c: 127: }
  5496                           ;ONE_SEC_FUNCTION.c: 128: Cal();
  5497  001256  EC40  F00D         	call	_Cal	;wreg free
  5498  00125A                     i2l3552:
  5499                           
  5500                           ;ONE_SEC_FUNCTION.c: 130: }
  5501                           ;ONE_SEC_FUNCTION.c: 131: if(RA3 == 0 && Auto_Manual == 0)
  5502  00125A  B680               	btfsc	3968,3,c	;volatile
  5503  00125C  D030               	goto	i2l3562
  5504  00125E  5047               	movf	_Auto_Manual,w,c
  5505  001260  1048               	iorwf	_Auto_Manual+1,w,c
  5506  001262  A4D8               	btfss	status,2,c
  5507  001264  D02C               	goto	i2l3562
  5508                           
  5509                           ;ONE_SEC_FUNCTION.c: 132: {
  5510                           ;ONE_SEC_FUNCTION.c: 133: Frequency = Frequency - 1;
  5511  001266  C05C  F018         	movff	_Frequency,i2___ftadd@f1
  5512  00126A  C05D  F019         	movff	_Frequency+1,i2___ftadd@f1+1
  5513  00126E  C05E  F01A         	movff	_Frequency+2,i2___ftadd@f1+2
  5514  001272  0E00               	movlw	0
  5515  001274  6E1B               	movwf	i2___ftadd@f2,c
  5516  001276  0E80               	movlw	128
  5517  001278  6E1C               	movwf	i2___ftadd@f2+1,c
  5518  00127A  0EBF               	movlw	191
  5519  00127C  6E1D               	movwf	i2___ftadd@f2+2,c
  5520  00127E  EC2D  F006         	call	i2___ftadd	;wreg free
  5521  001282  C018  F05C         	movff	?i2___ftadd,_Frequency
  5522  001286  C019  F05D         	movff	?i2___ftadd+1,_Frequency+1
  5523  00128A  C01A  F05E         	movff	?i2___ftadd+2,_Frequency+2
  5524                           
  5525                           ;ONE_SEC_FUNCTION.c: 134: if(Frequency <= 5)
  5526  00128E  0E00               	movlw	0
  5527  001290  6E01               	movwf	i2___ftge@ff1,c
  5528  001292  0EA0               	movlw	160
  5529  001294  6E02               	movwf	i2___ftge@ff1+1,c
  5530  001296  0E40               	movlw	64
  5531  001298  6E03               	movwf	i2___ftge@ff1+2,c
  5532  00129A  C05C  F004         	movff	_Frequency,i2___ftge@ff2
  5533  00129E  C05D  F005         	movff	_Frequency+1,i2___ftge@ff2+1
  5534  0012A2  C05E  F006         	movff	_Frequency+2,i2___ftge@ff2+2
  5535  0012A6  ECF8  F00C         	call	i2___ftge	;wreg free
  5536  0012AA  A0D8               	btfss	status,0,c
  5537  0012AC  D006               	goto	i2l3560
  5538                           
  5539                           ;ONE_SEC_FUNCTION.c: 135: {
  5540                           ;ONE_SEC_FUNCTION.c: 136: Frequency = 5;
  5541  0012AE  0E00               	movlw	0
  5542  0012B0  6E5C               	movwf	_Frequency,c
  5543  0012B2  0EA0               	movlw	160
  5544  0012B4  6E5D               	movwf	_Frequency+1,c
  5545  0012B6  0E40               	movlw	64
  5546  0012B8  6E5E               	movwf	_Frequency+2,c
  5547  0012BA                     i2l3560:
  5548                           
  5549                           ;ONE_SEC_FUNCTION.c: 137: }
  5550                           ;ONE_SEC_FUNCTION.c: 138: Cal();
  5551  0012BA  EC40  F00D         	call	_Cal	;wreg free
  5552  0012BE                     i2l3562:
  5553                           
  5554                           ;ONE_SEC_FUNCTION.c: 140: }
  5555                           ;ONE_SEC_FUNCTION.c: 141: if(Auto_Manual == 0 && RA4 == 0 && RA2 == 0 && DC_Bus_Voltage_
      +                          Low == 0 && DC_Bus_Voltage_High == 0 && Dc_Bus_Current == 0)
  5556  0012BE  5047               	movf	_Auto_Manual,w,c
  5557  0012C0  1048               	iorwf	_Auto_Manual+1,w,c
  5558  0012C2  B4D8               	btfsc	status,2,c
  5559  0012C4  B880               	btfsc	3968,4,c	;volatile
  5560  0012C6  D01E               	goto	i2l3590
  5561  0012C8  B480               	btfsc	3968,2,c	;volatile
  5562  0012CA  D01C               	goto	i2l3590
  5563  0012CC  504E               	movf	_DC_Bus_Voltage_Low,w,c
  5564  0012CE  A4D8               	btfss	status,2,c
  5565  0012D0  D019               	goto	i2l3590
  5566  0012D2  504D               	movf	_DC_Bus_Voltage_High,w,c
  5567  0012D4  A4D8               	btfss	status,2,c
  5568  0012D6  D016               	goto	i2l3590
  5569  0012D8  504F               	movf	_Dc_Bus_Current,w,c
  5570  0012DA  A4D8               	btfss	status,2,c
  5571  0012DC  D013               	goto	i2l3590
  5572                           
  5573                           ;ONE_SEC_FUNCTION.c: 142: {
  5574                           ;ONE_SEC_FUNCTION.c: 143: if(ON_OFF == 0)
  5575  0012DE  5049               	movf	_ON_OFF,w,c
  5576  0012E0  104A               	iorwf	_ON_OFF+1,w,c
  5577  0012E2  A4D8               	btfss	status,2,c
  5578  0012E4  D00F               	goto	i2l3590
  5579                           
  5580                           ;ONE_SEC_FUNCTION.c: 144: {
  5581                           ;ONE_SEC_FUNCTION.c: 145: POWER_PWM();
  5582  0012E6  EC39  F00E         	call	_POWER_PWM	;wreg free
  5583                           
  5584                           ;ONE_SEC_FUNCTION.c: 146: PTIE = 1;
  5585  0012EA  88A3               	bsf	4003,4,c	;volatile
  5586                           
  5587                           ;ONE_SEC_FUNCTION.c: 147: Cal();
  5588  0012EC  EC40  F00D         	call	_Cal	;wreg free
  5589                           
  5590                           ;ONE_SEC_FUNCTION.c: 148: ON_OFF = 1;
  5591  0012F0  0E00               	movlw	0
  5592  0012F2  6E4A               	movwf	_ON_OFF+1,c
  5593  0012F4  0E01               	movlw	1
  5594  0012F6  6E49               	movwf	_ON_OFF,c
  5595                           
  5596                           ;ONE_SEC_FUNCTION.c: 149: Dc_Bus_Current = 0; DC_Bus_Voltage_Low = 0; DC_Bus_Voltage_Hig
      +                          h = 0;
  5597  0012F8  0E00               	movlw	0
  5598  0012FA  6E4F               	movwf	_Dc_Bus_Current,c
  5599  0012FC  0E00               	movlw	0
  5600  0012FE  6E4E               	movwf	_DC_Bus_Voltage_Low,c
  5601  001300  0E00               	movlw	0
  5602  001302  6E4D               	movwf	_DC_Bus_Voltage_High,c
  5603  001304                     i2l3590:
  5604                           
  5605                           ;ONE_SEC_FUNCTION.c: 150: }
  5606                           ;ONE_SEC_FUNCTION.c: 151: }
  5607                           ;ONE_SEC_FUNCTION.c: 153: if(RA7 == 0)
  5608  001304  BE80               	btfsc	3968,7,c	;volatile
  5609  001306  D005               	goto	i2l3594
  5610                           
  5611                           ;ONE_SEC_FUNCTION.c: 154: {
  5612                           ;ONE_SEC_FUNCTION.c: 155: Auto_Manual = 0;
  5613  001308  0E00               	movlw	0
  5614  00130A  6E48               	movwf	_Auto_Manual+1,c
  5615  00130C  0E00               	movlw	0
  5616  00130E  6E47               	movwf	_Auto_Manual,c
  5617                           
  5618                           ;ONE_SEC_FUNCTION.c: 156: }
  5619  001310  0012               	return	
  5620  001312                     i2l3594:
  5621                           
  5622                           ;ONE_SEC_FUNCTION.c: 157: else
  5623                           ;ONE_SEC_FUNCTION.c: 158: {
  5624                           ;ONE_SEC_FUNCTION.c: 159: Auto_Manual = 1;
  5625  001312  0E00               	movlw	0
  5626  001314  6E48               	movwf	_Auto_Manual+1,c
  5627  001316  0E01               	movlw	1
  5628  001318  6E47               	movwf	_Auto_Manual,c
  5629  00131A  0012               	return	
  5630  00131C                     __end_of_Push_Button:
  5631                           	opt stack 0
  5632                           pclatu	equ	0xFFB
  5633                           pclath	equ	0xFFA
  5634                           tblptru	equ	0xFF8
  5635                           tblptrh	equ	0xFF7
  5636                           tblptrl	equ	0xFF6
  5637                           tablat	equ	0xFF5
  5638                           prodh	equ	0xFF4
  5639                           prodl	equ	0xFF3
  5640                           intcon	equ	0xFF2
  5641                           postinc0	equ	0xFEE
  5642                           fsr0h	equ	0xFEA
  5643                           fsr0l	equ	0xFE9
  5644                           wreg	equ	0xFE8
  5645                           postdec1	equ	0xFE5
  5646                           fsr1h	equ	0xFE2
  5647                           fsr1l	equ	0xFE1
  5648                           postinc2	equ	0xFDE
  5649                           postdec2	equ	0xFDD
  5650                           fsr2h	equ	0xFDA
  5651                           fsr2l	equ	0xFD9
  5652                           status	equ	0xFD8
  5653                           
  5654 ;; *************** function i2___ftge *****************
  5655 ;; Defined at:
  5656 ;;		line 4 in file "C:\Program Files (x86)\Microchip\xc8\v1.38\sources\common\ftge.c"
  5657 ;; Parameters:    Size  Location     Type
  5658 ;;  ff1             3    0[COMRAM] float 
  5659 ;;  ff2             3    3[COMRAM] float 
  5660 ;; Auto vars:     Size  Location     Type
  5661 ;;		None
  5662 ;; Return value:  Size  Location     Type
  5663 ;;		None               void
  5664 ;; Registers used:
  5665 ;;		wreg, status,2, status,0
  5666 ;; Tracked objects:
  5667 ;;		On entry : 0/0
  5668 ;;		On exit  : 0/0
  5669 ;;		Unchanged: 0/0
  5670 ;; Data sizes:     COMRAM   BANK0   BANK1   BANK2
  5671 ;;      Params:         6       0       0       0
  5672 ;;      Locals:         0       0       0       0
  5673 ;;      Temps:          3       0       0       0
  5674 ;;      Totals:         9       0       0       0
  5675 ;;Total ram usage:        9 bytes
  5676 ;; Hardware stack levels used:    1
  5677 ;; This function calls:
  5678 ;;		Nothing
  5679 ;; This function is called by:
  5680 ;;		_Voltage_Error_Trigger
  5681 ;;		_VFD_Current
  5682 ;;		_Push_Button
  5683 ;; This function uses a non-reentrant model
  5684 ;;
  5685                           
  5686                           	psect	text21
  5687  0019F0                     __ptext21:
  5688                           	opt stack 0
  5689  0019F0                     i2___ftge:
  5690                           	opt stack 26
  5691                           
  5692                           ;incstack = 0
  5693  0019F0  AE03               	btfss	i2___ftge@ff1+2,7,c
  5694  0019F2  D016               	goto	i2l3446
  5695  0019F4  C001  F007         	movff	i2___ftge@ff1,??i2___ftge
  5696  0019F8  C002  F008         	movff	i2___ftge@ff1+1,??i2___ftge+1
  5697  0019FC  C003  F009         	movff	i2___ftge@ff1+2,??i2___ftge+2
  5698  001A00  1E07               	comf	??i2___ftge,f,c
  5699  001A02  1E08               	comf	??i2___ftge+1,f,c
  5700  001A04  1E09               	comf	??i2___ftge+2,f,c
  5701  001A06  2A07               	incf	??i2___ftge,f,c
  5702  001A08  0E00               	movlw	0
  5703  001A0A  2208               	addwfc	??i2___ftge+1,f,c
  5704  001A0C  2209               	addwfc	??i2___ftge+2,f,c
  5705  001A0E  0E00               	movlw	0
  5706  001A10  2407               	addwf	??i2___ftge,w,c
  5707  001A12  6E01               	movwf	i2___ftge@ff1,c
  5708  001A14  0E00               	movlw	0
  5709  001A16  2008               	addwfc	??i2___ftge+1,w,c
  5710  001A18  6E02               	movwf	i2___ftge@ff1+1,c
  5711  001A1A  0E80               	movlw	128
  5712  001A1C  2009               	addwfc	??i2___ftge+2,w,c
  5713  001A1E  6E03               	movwf	i2___ftge@ff1+2,c
  5714  001A20                     i2l3446:
  5715  001A20  AE06               	btfss	i2___ftge@ff2+2,7,c
  5716  001A22  D016               	goto	i2l3450
  5717  001A24  C004  F007         	movff	i2___ftge@ff2,??i2___ftge
  5718  001A28  C005  F008         	movff	i2___ftge@ff2+1,??i2___ftge+1
  5719  001A2C  C006  F009         	movff	i2___ftge@ff2+2,??i2___ftge+2
  5720  001A30  1E07               	comf	??i2___ftge,f,c
  5721  001A32  1E08               	comf	??i2___ftge+1,f,c
  5722  001A34  1E09               	comf	??i2___ftge+2,f,c
  5723  001A36  2A07               	incf	??i2___ftge,f,c
  5724  001A38  0E00               	movlw	0
  5725  001A3A  2208               	addwfc	??i2___ftge+1,f,c
  5726  001A3C  2209               	addwfc	??i2___ftge+2,f,c
  5727  001A3E  0E00               	movlw	0
  5728  001A40  2407               	addwf	??i2___ftge,w,c
  5729  001A42  6E04               	movwf	i2___ftge@ff2,c
  5730  001A44  0E00               	movlw	0
  5731  001A46  2008               	addwfc	??i2___ftge+1,w,c
  5732  001A48  6E05               	movwf	i2___ftge@ff2+1,c
  5733  001A4A  0E80               	movlw	128
  5734  001A4C  2009               	addwfc	??i2___ftge+2,w,c
  5735  001A4E  6E06               	movwf	i2___ftge@ff2+2,c
  5736  001A50                     i2l3450:
  5737  001A50  0E00               	movlw	0
  5738  001A52  1A01               	xorwf	i2___ftge@ff1,f,c
  5739  001A54  0E00               	movlw	0
  5740  001A56  1A02               	xorwf	i2___ftge@ff1+1,f,c
  5741  001A58  0E80               	movlw	128
  5742  001A5A  1A03               	xorwf	i2___ftge@ff1+2,f,c
  5743  001A5C  0E00               	movlw	0
  5744  001A5E  1A04               	xorwf	i2___ftge@ff2,f,c
  5745  001A60  0E00               	movlw	0
  5746  001A62  1A05               	xorwf	i2___ftge@ff2+1,f,c
  5747  001A64  0E80               	movlw	128
  5748  001A66  1A06               	xorwf	i2___ftge@ff2+2,f,c
  5749  001A68  5004               	movf	i2___ftge@ff2,w,c
  5750  001A6A  5C01               	subwf	i2___ftge@ff1,w,c
  5751  001A6C  5005               	movf	i2___ftge@ff2+1,w,c
  5752  001A6E  5802               	subwfb	i2___ftge@ff1+1,w,c
  5753  001A70  5006               	movf	i2___ftge@ff2+2,w,c
  5754  001A72  5803               	subwfb	i2___ftge@ff1+2,w,c
  5755  001A74  B0D8               	btfsc	status,0,c
  5756  001A76  D002               	goto	i2l3456
  5757  001A78  90D8               	bcf	status,0,c
  5758  001A7A  0012               	return	
  5759  001A7C                     i2l3456:
  5760  001A7C  80D8               	bsf	status,0,c
  5761  001A7E  0012               	return	
  5762  001A80                     __end_ofi2___ftge:
  5763                           	opt stack 0
  5764                           pclatu	equ	0xFFB
  5765                           pclath	equ	0xFFA
  5766                           tblptru	equ	0xFF8
  5767                           tblptrh	equ	0xFF7
  5768                           tblptrl	equ	0xFF6
  5769                           tablat	equ	0xFF5
  5770                           prodh	equ	0xFF4
  5771                           prodl	equ	0xFF3
  5772                           intcon	equ	0xFF2
  5773                           postinc0	equ	0xFEE
  5774                           fsr0h	equ	0xFEA
  5775                           fsr0l	equ	0xFE9
  5776                           wreg	equ	0xFE8
  5777                           postdec1	equ	0xFE5
  5778                           fsr1h	equ	0xFE2
  5779                           fsr1l	equ	0xFE1
  5780                           postinc2	equ	0xFDE
  5781                           postdec2	equ	0xFDD
  5782                           fsr2h	equ	0xFDA
  5783                           fsr2l	equ	0xFD9
  5784                           status	equ	0xFD8
  5785                           
  5786 ;; *************** function _POWER_PWM *****************
  5787 ;; Defined at:
  5788 ;;		line 16 in file "PWM_MODULE.c"
  5789 ;; Parameters:    Size  Location     Type
  5790 ;;		None
  5791 ;; Auto vars:     Size  Location     Type
  5792 ;;		None
  5793 ;; Return value:  Size  Location     Type
  5794 ;;                  1    wreg      void 
  5795 ;; Registers used:
  5796 ;;		wreg, status,2
  5797 ;; Tracked objects:
  5798 ;;		On entry : 0/0
  5799 ;;		On exit  : 0/0
  5800 ;;		Unchanged: 0/0
  5801 ;; Data sizes:     COMRAM   BANK0   BANK1   BANK2
  5802 ;;      Params:         0       0       0       0
  5803 ;;      Locals:         0       0       0       0
  5804 ;;      Temps:          0       0       0       0
  5805 ;;      Totals:         0       0       0       0
  5806 ;;Total ram usage:        0 bytes
  5807 ;; Hardware stack levels used:    1
  5808 ;; This function calls:
  5809 ;;		Nothing
  5810 ;; This function is called by:
  5811 ;;		_ISR
  5812 ;;		_Push_Button
  5813 ;; This function uses a non-reentrant model
  5814 ;;
  5815                           
  5816                           	psect	text22
  5817  001C72                     __ptext22:
  5818                           	opt stack 0
  5819  001C72                     _POWER_PWM:
  5820                           	opt stack 26
  5821                           
  5822                           ;PWM_MODULE.c: 18: TRISB = 0;
  5823                           
  5824                           ;incstack = 0
  5825  001C72  0E00               	movlw	0
  5826  001C74  6E93               	movwf	3987,c	;volatile
  5827                           
  5828                           ;PWM_MODULE.c: 20: PTCON0 = 0b000000100;
  5829  001C76  0E04               	movlw	4
  5830  001C78  6E7F               	movwf	3967,c	;volatile
  5831                           
  5832                           ;PWM_MODULE.c: 21: PTEN = 0;
  5833  001C7A  9E7E               	bcf	3966,7,c	;volatile
  5834                           
  5835                           ;PWM_MODULE.c: 22: PWMCON0 = 0b01000000;
  5836  001C7C  0E40               	movlw	64
  5837  001C7E  6E6F               	movwf	3951,c	;volatile
  5838                           
  5839                           ;PWM_MODULE.c: 23: PWMCON1 = 0b00000001;
  5840  001C80  0E01               	movlw	1
  5841  001C82  6E6E               	movwf	3950,c	;volatile
  5842                           
  5843                           ;PWM_MODULE.c: 24: OVDCOND = 0xFF;
  5844  001C84  686B               	setf	3947,c	;volatile
  5845                           
  5846                           ;PWM_MODULE.c: 25: OVDCONS = 0x00;
  5847  001C86  0E00               	movlw	0
  5848  001C88  6E6A               	movwf	3946,c	;volatile
  5849                           
  5850                           ;PWM_MODULE.c: 26: SEVTCMPH:SEVTCMPL = 0x00;
  5851  001C8A  0E00               	movlw	0
  5852  001C8C  6E71               	movwf	3953,c	;volatile
  5853                           
  5854                           ;PWM_MODULE.c: 27: DTCON = 10;
  5855  001C8E  0E0A               	movlw	10
  5856  001C90  6E6D               	movwf	3949,c	;volatile
  5857                           
  5858                           ;PWM_MODULE.c: 28: PTEN=1;
  5859  001C92  8E7E               	bsf	3966,7,c	;volatile
  5860  001C94  0012               	return		;funcret
  5861  001C96                     __end_of_POWER_PWM:
  5862                           	opt stack 0
  5863                           pclatu	equ	0xFFB
  5864                           pclath	equ	0xFFA
  5865                           tblptru	equ	0xFF8
  5866                           tblptrh	equ	0xFF7
  5867                           tblptrl	equ	0xFF6
  5868                           tablat	equ	0xFF5
  5869                           prodh	equ	0xFF4
  5870                           prodl	equ	0xFF3
  5871                           intcon	equ	0xFF2
  5872                           postinc0	equ	0xFEE
  5873                           fsr0h	equ	0xFEA
  5874                           fsr0l	equ	0xFE9
  5875                           wreg	equ	0xFE8
  5876                           postdec1	equ	0xFE5
  5877                           fsr1h	equ	0xFE2
  5878                           fsr1l	equ	0xFE1
  5879                           postinc2	equ	0xFDE
  5880                           postdec2	equ	0xFDD
  5881                           fsr2h	equ	0xFDA
  5882                           fsr2l	equ	0xFD9
  5883                           status	equ	0xFD8
  5884                           
  5885 ;; *************** function _Cal *****************
  5886 ;; Defined at:
  5887 ;;		line 31 in file "PWM_MODULE.c"
  5888 ;; Parameters:    Size  Location     Type
  5889 ;;		None
  5890 ;; Auto vars:     Size  Location     Type
  5891 ;;		None
  5892 ;; Return value:  Size  Location     Type
  5893 ;;                  1    wreg      void 
  5894 ;; Registers used:
  5895 ;;		wreg, status,2, status,0, cstack
  5896 ;; Tracked objects:
  5897 ;;		On entry : 0/0
  5898 ;;		On exit  : 0/0
  5899 ;;		Unchanged: 0/0
  5900 ;; Data sizes:     COMRAM   BANK0   BANK1   BANK2
  5901 ;;      Params:         0       0       0       0
  5902 ;;      Locals:         0       0       0       0
  5903 ;;      Temps:          0       0       0       0
  5904 ;;      Totals:         0       0       0       0
  5905 ;;Total ram usage:        0 bytes
  5906 ;; Hardware stack levels used:    1
  5907 ;; Hardware stack levels required when called:    2
  5908 ;; This function calls:
  5909 ;;		i2___ftadd
  5910 ;;		i2___ftdiv
  5911 ;;		i2___ftmul
  5912 ;;		i2___fttol
  5913 ;; This function is called by:
  5914 ;;		_Push_Button
  5915 ;; This function uses a non-reentrant model
  5916 ;;
  5917                           
  5918                           	psect	text23
  5919  001A80                     __ptext23:
  5920                           	opt stack 0
  5921  001A80                     _Cal:
  5922                           	opt stack 24
  5923                           
  5924                           ;PWM_MODULE.c: 33: B= B_1 * Frequency;
  5925                           
  5926                           ;incstack = 0
  5927  001A80  C0FC  F00D         	movff	_B_1,i2___ftmul@f1
  5928  001A84  C0FD  F00E         	movff	_B_1+1,i2___ftmul@f1+1
  5929  001A88  C0FE  F00F         	movff	_B_1+2,i2___ftmul@f1+2
  5930  001A8C  C05C  F010         	movff	_Frequency,i2___ftmul@f2
  5931  001A90  C05D  F011         	movff	_Frequency+1,i2___ftmul@f2+1
  5932  001A94  C05E  F012         	movff	_Frequency+2,i2___ftmul@f2+2
  5933  001A98  EC8E  F00A         	call	i2___ftmul	;wreg free
  5934  001A9C  C00D  F072         	movff	?i2___ftmul,_B
  5935  001AA0  C00E  F073         	movff	?i2___ftmul+1,_B+1
  5936  001AA4  C00F  F074         	movff	?i2___ftmul+2,_B+2
  5937                           
  5938                           ;PWM_MODULE.c: 34: Vab = (A / B) - 1;
  5939  001AA8  0E00               	movlw	0
  5940  001AAA  6E1B               	movwf	i2___ftadd@f2,c
  5941  001AAC  0E80               	movlw	128
  5942  001AAE  6E1C               	movwf	i2___ftadd@f2+1,c
  5943  001AB0  0EBF               	movlw	191
  5944  001AB2  6E1D               	movwf	i2___ftadd@f2+2,c
  5945  001AB4  C072  F00C         	movff	_B,i2___ftdiv@f2
  5946  001AB8  C073  F00D         	movff	_B+1,i2___ftdiv@f2+1
  5947  001ABC  C074  F00E         	movff	_B+2,i2___ftdiv@f2+2
  5948  001AC0  C0F9  F009         	movff	_A,i2___ftdiv@f1
  5949  001AC4  C0FA  F00A         	movff	_A+1,i2___ftdiv@f1+1
  5950  001AC8  C0FB  F00B         	movff	_A+2,i2___ftdiv@f1+2
  5951  001ACC  EC81  F00B         	call	i2___ftdiv	;wreg free
  5952  001AD0  C009  F018         	movff	?i2___ftdiv,i2___ftadd@f1
  5953  001AD4  C00A  F019         	movff	?i2___ftdiv+1,i2___ftadd@f1+1
  5954  001AD8  C00B  F01A         	movff	?i2___ftdiv+2,i2___ftadd@f1+2
  5955  001ADC  EC2D  F006         	call	i2___ftadd	;wreg free
  5956  001AE0  C018  F024         	movff	?i2___ftadd,i2___fttol@f1
  5957  001AE4  C019  F025         	movff	?i2___ftadd+1,i2___fttol@f1+1
  5958  001AE8  C01A  F026         	movff	?i2___ftadd+2,i2___fttol@f1+2
  5959  001AEC  EC14  F00A         	call	i2___fttol	;wreg free
  5960  001AF0  C024  F043         	movff	?i2___fttol,_Vab
  5961  001AF4  C025  F044         	movff	?i2___fttol+1,_Vab+1
  5962  001AF8  C026  F045         	movff	?i2___fttol+2,_Vab+2
  5963  001AFC  C027  F046         	movff	?i2___fttol+3,_Vab+3
  5964                           
  5965                           ;PWM_MODULE.c: 35: PTPERL = Vab & 0xFF;
  5966  001B00  C043  FF7B         	movff	_Vab,3963	;volatile
  5967                           
  5968                           ;PWM_MODULE.c: 36: PTPERH = Vab >> 8;
  5969  001B04  C044  FF7A         	movff	_Vab+1,3962	;volatile
  5970  001B08  0012               	return		;funcret
  5971  001B0A                     __end_of_Cal:
  5972                           	opt stack 0
  5973                           pclatu	equ	0xFFB
  5974                           pclath	equ	0xFFA
  5975                           tblptru	equ	0xFF8
  5976                           tblptrh	equ	0xFF7
  5977                           tblptrl	equ	0xFF6
  5978                           tablat	equ	0xFF5
  5979                           prodh	equ	0xFF4
  5980                           prodl	equ	0xFF3
  5981                           intcon	equ	0xFF2
  5982                           postinc0	equ	0xFEE
  5983                           fsr0h	equ	0xFEA
  5984                           fsr0l	equ	0xFE9
  5985                           wreg	equ	0xFE8
  5986                           postdec1	equ	0xFE5
  5987                           fsr1h	equ	0xFE2
  5988                           fsr1l	equ	0xFE1
  5989                           postinc2	equ	0xFDE
  5990                           postdec2	equ	0xFDD
  5991                           fsr2h	equ	0xFDA
  5992                           fsr2l	equ	0xFD9
  5993                           status	equ	0xFD8
  5994                           
  5995 ;; *************** function _Logic_Error_Io *****************
  5996 ;; Defined at:
  5997 ;;		line 106 in file "ONE_SEC_FUNCTION.c"
  5998 ;; Parameters:    Size  Location     Type
  5999 ;;		None
  6000 ;; Auto vars:     Size  Location     Type
  6001 ;;		None
  6002 ;; Return value:  Size  Location     Type
  6003 ;;                  1    wreg      void 
  6004 ;; Registers used:
  6005 ;;		wreg, status,2
  6006 ;; Tracked objects:
  6007 ;;		On entry : 0/0
  6008 ;;		On exit  : 0/0
  6009 ;;		Unchanged: 0/0
  6010 ;; Data sizes:     COMRAM   BANK0   BANK1   BANK2
  6011 ;;      Params:         0       0       0       0
  6012 ;;      Locals:         0       0       0       0
  6013 ;;      Temps:          0       0       0       0
  6014 ;;      Totals:         0       0       0       0
  6015 ;;Total ram usage:        0 bytes
  6016 ;; Hardware stack levels used:    1
  6017 ;; This function calls:
  6018 ;;		Nothing
  6019 ;; This function is called by:
  6020 ;;		_ISR
  6021 ;; This function uses a non-reentrant model
  6022 ;;
  6023                           
  6024                           	psect	text24
  6025  001CDC                     __ptext24:
  6026                           	opt stack 0
  6027  001CDC                     _Logic_Error_Io:
  6028                           	opt stack 27
  6029                           
  6030                           ;ONE_SEC_FUNCTION.c: 108: if(RC0 == 1)
  6031                           
  6032                           ;incstack = 0
  6033  001CDC  A082               	btfss	3970,0,c	;volatile
  6034  001CDE  D008               	goto	i2l3536
  6035                           
  6036                           ;ONE_SEC_FUNCTION.c: 109: {
  6037                           ;ONE_SEC_FUNCTION.c: 110: LOGIC_ERROR_FLAG = 1;
  6038  001CE0  0E01               	movlw	1
  6039  001CE2  6E54               	movwf	_LOGIC_ERROR_FLAG,c
  6040                           
  6041                           ;ONE_SEC_FUNCTION.c: 111: RC3 = ~RC3;
  6042  001CE4  B682               	btfsc	3970,3,c	;volatile
  6043  001CE6  D002               	goto	i2u279_40
  6044  001CE8  8682               	bsf	3970,3,c	;volatile
  6045  001CEA  0012               	return	
  6046  001CEC                     i2u279_40:
  6047  001CEC  9682               	bcf	3970,3,c	;volatile
  6048                           
  6049                           ;ONE_SEC_FUNCTION.c: 112: }
  6050  001CEE  0012               	return	
  6051  001CF0                     i2l3536:
  6052                           
  6053                           ;ONE_SEC_FUNCTION.c: 113: else
  6054                           ;ONE_SEC_FUNCTION.c: 114: {
  6055                           ;ONE_SEC_FUNCTION.c: 115: LOGIC_ERROR_FLAG = 0;
  6056  001CF0  0E00               	movlw	0
  6057  001CF2  6E54               	movwf	_LOGIC_ERROR_FLAG,c
  6058                           
  6059                           ;ONE_SEC_FUNCTION.c: 116: RC3 = 0;
  6060  001CF4  9682               	bcf	3970,3,c	;volatile
  6061  001CF6  0012               	return	
  6062  001CF8                     __end_of_Logic_Error_Io:
  6063                           	opt stack 0
  6064                           pclatu	equ	0xFFB
  6065                           pclath	equ	0xFFA
  6066                           tblptru	equ	0xFF8
  6067                           tblptrh	equ	0xFF7
  6068                           tblptrl	equ	0xFF6
  6069                           tablat	equ	0xFF5
  6070                           prodh	equ	0xFF4
  6071                           prodl	equ	0xFF3
  6072                           intcon	equ	0xFF2
  6073                           postinc0	equ	0xFEE
  6074                           fsr0h	equ	0xFEA
  6075                           fsr0l	equ	0xFE9
  6076                           wreg	equ	0xFE8
  6077                           postdec1	equ	0xFE5
  6078                           fsr1h	equ	0xFE2
  6079                           fsr1l	equ	0xFE1
  6080                           postinc2	equ	0xFDE
  6081                           postdec2	equ	0xFDD
  6082                           fsr2h	equ	0xFDA
  6083                           fsr2l	equ	0xFD9
  6084                           status	equ	0xFD8
  6085                           
  6086 ;; *************** function _Auto_PWM_Cal *****************
  6087 ;; Defined at:
  6088 ;;		line 48 in file "PWM_MODULE.c"
  6089 ;; Parameters:    Size  Location     Type
  6090 ;;		None
  6091 ;; Auto vars:     Size  Location     Type
  6092 ;;		None
  6093 ;; Return value:  Size  Location     Type
  6094 ;;                  1    wreg      void 
  6095 ;; Registers used:
  6096 ;;		wreg, status,2, status,0, cstack
  6097 ;; Tracked objects:
  6098 ;;		On entry : 0/0
  6099 ;;		On exit  : 0/0
  6100 ;;		Unchanged: 0/0
  6101 ;; Data sizes:     COMRAM   BANK0   BANK1   BANK2
  6102 ;;      Params:         0       0       0       0
  6103 ;;      Locals:         0       0       0       0
  6104 ;;      Temps:          0       0       0       0
  6105 ;;      Totals:         0       0       0       0
  6106 ;;Total ram usage:        0 bytes
  6107 ;; Hardware stack levels used:    1
  6108 ;; Hardware stack levels required when called:    2
  6109 ;; This function calls:
  6110 ;;		___lbtoft
  6111 ;;		i2___ftadd
  6112 ;;		i2___ftdiv
  6113 ;;		i2___ftmul
  6114 ;;		i2___fttol
  6115 ;; This function is called by:
  6116 ;;		_ISR
  6117 ;; This function uses a non-reentrant model
  6118 ;;
  6119                           
  6120                           	psect	text25
  6121  00195E                     __ptext25:
  6122                           	opt stack 0
  6123  00195E                     _Auto_PWM_Cal:
  6124                           	opt stack 25
  6125                           
  6126                           ;PWM_MODULE.c: 50: B= B_1 * Desired_Frequency;
  6127                           
  6128                           ;incstack = 0
  6129  00195E  0100               	movlb	0	; () banked
  6130  001960  51B7               	movf	_Desired_Frequency& (0+255),w,b
  6131  001962  EC4B  F00E         	call	___lbtoft
  6132  001966  C009  F00D         	movff	?___lbtoft,i2___ftmul@f1
  6133  00196A  C00A  F00E         	movff	?___lbtoft+1,i2___ftmul@f1+1
  6134  00196E  C00B  F00F         	movff	?___lbtoft+2,i2___ftmul@f1+2
  6135  001972  C0FC  F010         	movff	_B_1,i2___ftmul@f2
  6136  001976  C0FD  F011         	movff	_B_1+1,i2___ftmul@f2+1
  6137  00197A  C0FE  F012         	movff	_B_1+2,i2___ftmul@f2+2
  6138  00197E  EC8E  F00A         	call	i2___ftmul	;wreg free
  6139  001982  C00D  F072         	movff	?i2___ftmul,_B
  6140  001986  C00E  F073         	movff	?i2___ftmul+1,_B+1
  6141  00198A  C00F  F074         	movff	?i2___ftmul+2,_B+2
  6142                           
  6143                           ;PWM_MODULE.c: 51: Vab = (A / B) - 1;
  6144  00198E  0E00               	movlw	0
  6145  001990  6E1B               	movwf	i2___ftadd@f2,c
  6146  001992  0E80               	movlw	128
  6147  001994  6E1C               	movwf	i2___ftadd@f2+1,c
  6148  001996  0EBF               	movlw	191
  6149  001998  6E1D               	movwf	i2___ftadd@f2+2,c
  6150  00199A  C072  F00C         	movff	_B,i2___ftdiv@f2
  6151  00199E  C073  F00D         	movff	_B+1,i2___ftdiv@f2+1
  6152  0019A2  C074  F00E         	movff	_B+2,i2___ftdiv@f2+2
  6153  0019A6  C0F9  F009         	movff	_A,i2___ftdiv@f1
  6154  0019AA  C0FA  F00A         	movff	_A+1,i2___ftdiv@f1+1
  6155  0019AE  C0FB  F00B         	movff	_A+2,i2___ftdiv@f1+2
  6156  0019B2  EC81  F00B         	call	i2___ftdiv	;wreg free
  6157  0019B6  C009  F018         	movff	?i2___ftdiv,i2___ftadd@f1
  6158  0019BA  C00A  F019         	movff	?i2___ftdiv+1,i2___ftadd@f1+1
  6159  0019BE  C00B  F01A         	movff	?i2___ftdiv+2,i2___ftadd@f1+2
  6160  0019C2  EC2D  F006         	call	i2___ftadd	;wreg free
  6161  0019C6  C018  F024         	movff	?i2___ftadd,i2___fttol@f1
  6162  0019CA  C019  F025         	movff	?i2___ftadd+1,i2___fttol@f1+1
  6163  0019CE  C01A  F026         	movff	?i2___ftadd+2,i2___fttol@f1+2
  6164  0019D2  EC14  F00A         	call	i2___fttol	;wreg free
  6165  0019D6  C024  F043         	movff	?i2___fttol,_Vab
  6166  0019DA  C025  F044         	movff	?i2___fttol+1,_Vab+1
  6167  0019DE  C026  F045         	movff	?i2___fttol+2,_Vab+2
  6168  0019E2  C027  F046         	movff	?i2___fttol+3,_Vab+3
  6169                           
  6170                           ;PWM_MODULE.c: 52: PTPERL = Vab & 0xFF;
  6171  0019E6  C043  FF7B         	movff	_Vab,3963	;volatile
  6172                           
  6173                           ;PWM_MODULE.c: 53: PTPERH = Vab >> 8;
  6174  0019EA  C044  FF7A         	movff	_Vab+1,3962	;volatile
  6175  0019EE  0012               	return		;funcret
  6176  0019F0                     __end_of_Auto_PWM_Cal:
  6177                           	opt stack 0
  6178                           pclatu	equ	0xFFB
  6179                           pclath	equ	0xFFA
  6180                           tblptru	equ	0xFF8
  6181                           tblptrh	equ	0xFF7
  6182                           tblptrl	equ	0xFF6
  6183                           tablat	equ	0xFF5
  6184                           prodh	equ	0xFF4
  6185                           prodl	equ	0xFF3
  6186                           intcon	equ	0xFF2
  6187                           postinc0	equ	0xFEE
  6188                           fsr0h	equ	0xFEA
  6189                           fsr0l	equ	0xFE9
  6190                           wreg	equ	0xFE8
  6191                           postdec1	equ	0xFE5
  6192                           fsr1h	equ	0xFE2
  6193                           fsr1l	equ	0xFE1
  6194                           postinc2	equ	0xFDE
  6195                           postdec2	equ	0xFDD
  6196                           fsr2h	equ	0xFDA
  6197                           fsr2l	equ	0xFD9
  6198                           status	equ	0xFD8
  6199                           
  6200 ;; *************** function i2___fttol *****************
  6201 ;; Defined at:
  6202 ;;		line 44 in file "C:\Program Files (x86)\Microchip\xc8\v1.38\sources\common\fttol.c"
  6203 ;; Parameters:    Size  Location     Type
  6204 ;;  f1              3   35[COMRAM] float 
  6205 ;; Auto vars:     Size  Location     Type
  6206 ;;  __fttol         4   45[COMRAM] unsigned long 
  6207 ;;  __fttol         1   49[COMRAM] unsigned char 
  6208 ;;  __fttol         1   44[COMRAM] unsigned char 
  6209 ;; Return value:  Size  Location     Type
  6210 ;;                  4   35[COMRAM] long 
  6211 ;; Registers used:
  6212 ;;		wreg, status,2, status,0
  6213 ;; Tracked objects:
  6214 ;;		On entry : 0/0
  6215 ;;		On exit  : 0/0
  6216 ;;		Unchanged: 0/0
  6217 ;; Data sizes:     COMRAM   BANK0   BANK1   BANK2
  6218 ;;      Params:         4       0       0       0
  6219 ;;      Locals:         6       0       0       0
  6220 ;;      Temps:          5       0       0       0
  6221 ;;      Totals:        15       0       0       0
  6222 ;;Total ram usage:       15 bytes
  6223 ;; Hardware stack levels used:    1
  6224 ;; This function calls:
  6225 ;;		Nothing
  6226 ;; This function is called by:
  6227 ;;		_Cal
  6228 ;;		_Auto_PWM_Cal
  6229 ;; This function uses a non-reentrant model
  6230 ;;
  6231                           
  6232                           	psect	text26
  6233  001428                     __ptext26:
  6234                           	opt stack 0
  6235  001428                     i2___fttol:
  6236                           	opt stack 25
  6237                           
  6238                           ;incstack = 0
  6239  001428  C026  F028         	movff	i2___fttol@f1+2,??i2___fttol
  6240  00142C  6A29               	clrf	(??i2___fttol+1)& (0+255),c
  6241  00142E  6A2A               	clrf	(??i2___fttol+2)& (0+255),c
  6242  001430  3425               	rlcf	i2___fttol@f1+1,w,c
  6243  001432  3628               	rlcf	??i2___fttol& (0+255),f,c
  6244  001434  E301               	bnc	u248_41
  6245  001436  8029               	bsf	(??i2___fttol+1)& (0+255),0,c
  6246  001438                     u248_41:
  6247  001438  5028               	movf	??i2___fttol,w,c
  6248  00143A  6E32               	movwf	i2___fttol@exp1,c
  6249  00143C  5032               	movf	i2___fttol@exp1,w,c
  6250  00143E  A4D8               	btfss	status,2,c
  6251  001440  D009               	goto	i2l3348
  6252  001442  0E00               	movlw	0
  6253  001444  6E24               	movwf	?i2___fttol,c
  6254  001446  0E00               	movlw	0
  6255  001448  6E25               	movwf	?i2___fttol+1,c
  6256  00144A  0E00               	movlw	0
  6257  00144C  6E26               	movwf	?i2___fttol+2,c
  6258  00144E  0E00               	movlw	0
  6259  001450  6E27               	movwf	?i2___fttol+3,c
  6260  001452  0012               	return	
  6261  001454                     i2l3348:
  6262  001454  0E17               	movlw	23
  6263  001456  6E28               	movwf	??i2___fttol& (0+255),c
  6264  001458  C024  F029         	movff	i2___fttol@f1,??i2___fttol+1
  6265  00145C  C025  F02A         	movff	i2___fttol@f1+1,??i2___fttol+2
  6266  001460  C026  F02B         	movff	i2___fttol@f1+2,??i2___fttol+3
  6267  001464  2828               	incf	??i2___fttol,w,c
  6268  001466  6E2C               	movwf	(??i2___fttol+4)& (0+255),c
  6269  001468  D004               	goto	i2u250_40
  6270  00146A                     i2u250_45:
  6271  00146A  90D8               	bcf	status,0,c
  6272  00146C  322B               	rrcf	??i2___fttol+3,f,c
  6273  00146E  322A               	rrcf	??i2___fttol+2,f,c
  6274  001470  3229               	rrcf	??i2___fttol+1,f,c
  6275  001472                     i2u250_40:
  6276  001472  2E2C               	decfsz	(??i2___fttol+4)& (0+255),f,c
  6277  001474  D7FA               	goto	i2u250_45
  6278  001476  5029               	movf	??i2___fttol+1,w,c
  6279  001478  6E2D               	movwf	i2___fttol@sign1,c
  6280  00147A  8E25               	bsf	i2___fttol@f1+1,7,c
  6281  00147C  0EFF               	movlw	255
  6282  00147E  1624               	andwf	i2___fttol@f1,f,c
  6283  001480  0EFF               	movlw	255
  6284  001482  1625               	andwf	i2___fttol@f1+1,f,c
  6285  001484  0E00               	movlw	0
  6286  001486  1626               	andwf	i2___fttol@f1+2,f,c
  6287  001488  5024               	movf	i2___fttol@f1,w,c
  6288  00148A  6E2E               	movwf	i2___fttol@lval,c
  6289  00148C  5025               	movf	i2___fttol@f1+1,w,c
  6290  00148E  6E2F               	movwf	i2___fttol@lval+1,c
  6291  001490  5026               	movf	i2___fttol@f1+2,w,c
  6292  001492  6E30               	movwf	i2___fttol@lval+2,c
  6293  001494  6A31               	clrf	i2___fttol@lval+3,c
  6294  001496  0E8E               	movlw	142
  6295  001498  5E32               	subwf	i2___fttol@exp1,f,c
  6296  00149A  AE32               	btfss	i2___fttol@exp1,7,c
  6297  00149C  D016               	goto	i2l3370
  6298  00149E  5032               	movf	i2___fttol@exp1,w,c
  6299  0014A0  0A80               	xorlw	128
  6300  0014A2  0F8F               	addlw	143
  6301  0014A4  B0D8               	btfsc	status,0,c
  6302  0014A6  D009               	goto	i2l3366
  6303  0014A8  0E00               	movlw	0
  6304  0014AA  6E24               	movwf	?i2___fttol,c
  6305  0014AC  0E00               	movlw	0
  6306  0014AE  6E25               	movwf	?i2___fttol+1,c
  6307  0014B0  0E00               	movlw	0
  6308  0014B2  6E26               	movwf	?i2___fttol+2,c
  6309  0014B4  0E00               	movlw	0
  6310  0014B6  6E27               	movwf	?i2___fttol+3,c
  6311  0014B8  0012               	return	
  6312  0014BA                     i2l3366:
  6313  0014BA  90D8               	bcf	status,0,c
  6314  0014BC  3231               	rrcf	i2___fttol@lval+3,f,c
  6315  0014BE  3230               	rrcf	i2___fttol@lval+2,f,c
  6316  0014C0  322F               	rrcf	i2___fttol@lval+1,f,c
  6317  0014C2  322E               	rrcf	i2___fttol@lval,f,c
  6318  0014C4  3E32               	incfsz	i2___fttol@exp1,f,c
  6319  0014C6  D7F9               	goto	i2l3366
  6320  0014C8  D015               	goto	i2l3380
  6321  0014CA                     i2l3370:
  6322  0014CA  0E17               	movlw	23
  6323  0014CC  6432               	cpfsgt	i2___fttol@exp1,c
  6324  0014CE  D00F               	goto	i2l3378
  6325  0014D0  0E00               	movlw	0
  6326  0014D2  6E24               	movwf	?i2___fttol,c
  6327  0014D4  0E00               	movlw	0
  6328  0014D6  6E25               	movwf	?i2___fttol+1,c
  6329  0014D8  0E00               	movlw	0
  6330  0014DA  6E26               	movwf	?i2___fttol+2,c
  6331  0014DC  0E00               	movlw	0
  6332  0014DE  6E27               	movwf	?i2___fttol+3,c
  6333  0014E0  0012               	return	
  6334  0014E2                     i2l3376:
  6335  0014E2  90D8               	bcf	status,0,c
  6336  0014E4  362E               	rlcf	i2___fttol@lval,f,c
  6337  0014E6  362F               	rlcf	i2___fttol@lval+1,f,c
  6338  0014E8  3630               	rlcf	i2___fttol@lval+2,f,c
  6339  0014EA  3631               	rlcf	i2___fttol@lval+3,f,c
  6340  0014EC  0632               	decf	i2___fttol@exp1,f,c
  6341  0014EE                     i2l3378:
  6342  0014EE  5032               	movf	i2___fttol@exp1,w,c
  6343  0014F0  A4D8               	btfss	status,2,c
  6344  0014F2  D7F7               	goto	i2l3376
  6345  0014F4                     i2l3380:
  6346  0014F4  502D               	movf	i2___fttol@sign1,w,c
  6347  0014F6  B4D8               	btfsc	status,2,c
  6348  0014F8  D008               	goto	i2l3384
  6349  0014FA  1E31               	comf	i2___fttol@lval+3,f,c
  6350  0014FC  1E30               	comf	i2___fttol@lval+2,f,c
  6351  0014FE  1E2F               	comf	i2___fttol@lval+1,f,c
  6352  001500  6C2E               	negf	i2___fttol@lval,c
  6353  001502  0E00               	movlw	0
  6354  001504  222F               	addwfc	i2___fttol@lval+1,f,c
  6355  001506  2230               	addwfc	i2___fttol@lval+2,f,c
  6356  001508  2231               	addwfc	i2___fttol@lval+3,f,c
  6357  00150A                     i2l3384:
  6358  00150A  C02E  F024         	movff	i2___fttol@lval,?i2___fttol
  6359  00150E  C02F  F025         	movff	i2___fttol@lval+1,?i2___fttol+1
  6360  001512  C030  F026         	movff	i2___fttol@lval+2,?i2___fttol+2
  6361  001516  C031  F027         	movff	i2___fttol@lval+3,?i2___fttol+3
  6362  00151A  0012               	return	
  6363  00151C                     __end_ofi2___fttol:
  6364                           	opt stack 0
  6365                           pclatu	equ	0xFFB
  6366                           pclath	equ	0xFFA
  6367                           tblptru	equ	0xFF8
  6368                           tblptrh	equ	0xFF7
  6369                           tblptrl	equ	0xFF6
  6370                           tablat	equ	0xFF5
  6371                           prodh	equ	0xFF4
  6372                           prodl	equ	0xFF3
  6373                           intcon	equ	0xFF2
  6374                           postinc0	equ	0xFEE
  6375                           fsr0h	equ	0xFEA
  6376                           fsr0l	equ	0xFE9
  6377                           wreg	equ	0xFE8
  6378                           postdec1	equ	0xFE5
  6379                           fsr1h	equ	0xFE2
  6380                           fsr1l	equ	0xFE1
  6381                           postinc2	equ	0xFDE
  6382                           postdec2	equ	0xFDD
  6383                           fsr2h	equ	0xFDA
  6384                           fsr2l	equ	0xFD9
  6385                           status	equ	0xFD8
  6386                           
  6387 ;; *************** function i2___ftmul *****************
  6388 ;; Defined at:
  6389 ;;		line 62 in file "C:\Program Files (x86)\Microchip\xc8\v1.38\sources\common\ftmul.c"
  6390 ;; Parameters:    Size  Location     Type
  6391 ;;  f1              3   12[COMRAM] float 
  6392 ;;  f2              3   15[COMRAM] float 
  6393 ;; Auto vars:     Size  Location     Type
  6394 ;;  __ftmul         3   22[COMRAM] unsigned um
  6395 ;;  __ftmul         1   26[COMRAM] unsigned char 
  6396 ;;  __ftmul         1   25[COMRAM] unsigned char 
  6397 ;;  __ftmul         1   21[COMRAM] unsigned char 
  6398 ;; Return value:  Size  Location     Type
  6399 ;;                  3   12[COMRAM] float 
  6400 ;; Registers used:
  6401 ;;		wreg, status,2, status,0, cstack
  6402 ;; Tracked objects:
  6403 ;;		On entry : 0/0
  6404 ;;		On exit  : 0/0
  6405 ;;		Unchanged: 0/0
  6406 ;; Data sizes:     COMRAM   BANK0   BANK1   BANK2
  6407 ;;      Params:         6       0       0       0
  6408 ;;      Locals:         6       0       0       0
  6409 ;;      Temps:          3       0       0       0
  6410 ;;      Totals:        15       0       0       0
  6411 ;;Total ram usage:       15 bytes
  6412 ;; Hardware stack levels used:    1
  6413 ;; Hardware stack levels required when called:    1
  6414 ;; This function calls:
  6415 ;;		i2___ftpack
  6416 ;; This function is called by:
  6417 ;;		_Cal
  6418 ;;		_Auto_PWM_Cal
  6419 ;; This function uses a non-reentrant model
  6420 ;;
  6421                           
  6422                           	psect	text27
  6423  00151C                     __ptext27:
  6424                           	opt stack 0
  6425  00151C                     i2___ftmul:
  6426                           	opt stack 24
  6427                           
  6428                           ;incstack = 0
  6429  00151C  C00F  F013         	movff	i2___ftmul@f1+2,??i2___ftmul
  6430  001520  6A14               	clrf	(??i2___ftmul+1)& (0+255),c
  6431  001522  6A15               	clrf	(??i2___ftmul+2)& (0+255),c
  6432  001524  340E               	rlcf	i2___ftmul@f1+1,w,c
  6433  001526  3613               	rlcf	??i2___ftmul& (0+255),f,c
  6434  001528  E301               	bnc	u242_41
  6435  00152A  8014               	bsf	(??i2___ftmul+1)& (0+255),0,c
  6436  00152C                     u242_41:
  6437  00152C  5013               	movf	??i2___ftmul,w,c
  6438  00152E  6E16               	movwf	i2___ftmul@exp,c
  6439  001530  5016               	movf	i2___ftmul@exp,w,c
  6440  001532  A4D8               	btfss	status,2,c
  6441  001534  D007               	goto	i2l3300
  6442  001536  0E00               	movlw	0
  6443  001538  6E0D               	movwf	?i2___ftmul,c
  6444  00153A  0E00               	movlw	0
  6445  00153C  6E0E               	movwf	?i2___ftmul+1,c
  6446  00153E  0E00               	movlw	0
  6447  001540  6E0F               	movwf	?i2___ftmul+2,c
  6448  001542  0012               	return	
  6449  001544                     i2l3300:
  6450  001544  C012  F013         	movff	i2___ftmul@f2+2,??i2___ftmul
  6451  001548  6A14               	clrf	(??i2___ftmul+1)& (0+255),c
  6452  00154A  6A15               	clrf	(??i2___ftmul+2)& (0+255),c
  6453  00154C  3411               	rlcf	i2___ftmul@f2+1,w,c
  6454  00154E  3613               	rlcf	??i2___ftmul& (0+255),f,c
  6455  001550  E301               	bnc	u244_41
  6456  001552  8014               	bsf	(??i2___ftmul+1)& (0+255),0,c
  6457  001554                     u244_41:
  6458  001554  5013               	movf	??i2___ftmul,w,c
  6459  001556  6E1B               	movwf	i2___ftmul@sign,c
  6460  001558  501B               	movf	i2___ftmul@sign,w,c
  6461  00155A  A4D8               	btfss	status,2,c
  6462  00155C  D007               	goto	i2l3306
  6463  00155E  0E00               	movlw	0
  6464  001560  6E0D               	movwf	?i2___ftmul,c
  6465  001562  0E00               	movlw	0
  6466  001564  6E0E               	movwf	?i2___ftmul+1,c
  6467  001566  0E00               	movlw	0
  6468  001568  6E0F               	movwf	?i2___ftmul+2,c
  6469  00156A  0012               	return	
  6470  00156C                     i2l3306:
  6471  00156C  501B               	movf	i2___ftmul@sign,w,c
  6472  00156E  0F7B               	addlw	123
  6473  001570  2616               	addwf	i2___ftmul@exp,f,c
  6474  001572  C00F  F01B         	movff	i2___ftmul@f1+2,i2___ftmul@sign
  6475  001576  5012               	movf	i2___ftmul@f2+2,w,c
  6476  001578  1A1B               	xorwf	i2___ftmul@sign,f,c
  6477  00157A  0E80               	movlw	128
  6478  00157C  161B               	andwf	i2___ftmul@sign,f,c
  6479  00157E  8E0E               	bsf	i2___ftmul@f1+1,7,c
  6480  001580  8E11               	bsf	i2___ftmul@f2+1,7,c
  6481  001582  0EFF               	movlw	255
  6482  001584  1610               	andwf	i2___ftmul@f2,f,c
  6483  001586  0EFF               	movlw	255
  6484  001588  1611               	andwf	i2___ftmul@f2+1,f,c
  6485  00158A  0E00               	movlw	0
  6486  00158C  1612               	andwf	i2___ftmul@f2+2,f,c
  6487  00158E  0E00               	movlw	0
  6488  001590  6E17               	movwf	i2___ftmul@f3_as_product,c
  6489  001592  0E00               	movlw	0
  6490  001594  6E18               	movwf	i2___ftmul@f3_as_product+1,c
  6491  001596  0E00               	movlw	0
  6492  001598  6E19               	movwf	i2___ftmul@f3_as_product+2,c
  6493  00159A  0E07               	movlw	7
  6494  00159C  6E1A               	movwf	i2___ftmul@cntr,c
  6495  00159E                     i2l3320:
  6496  00159E  A00D               	btfss	i2___ftmul@f1,0,c
  6497  0015A0  D006               	goto	i2l3324
  6498  0015A2  5010               	movf	i2___ftmul@f2,w,c
  6499  0015A4  2617               	addwf	i2___ftmul@f3_as_product,f,c
  6500  0015A6  5011               	movf	i2___ftmul@f2+1,w,c
  6501  0015A8  2218               	addwfc	i2___ftmul@f3_as_product+1,f,c
  6502  0015AA  5012               	movf	i2___ftmul@f2+2,w,c
  6503  0015AC  2219               	addwfc	i2___ftmul@f3_as_product+2,f,c
  6504  0015AE                     i2l3324:
  6505  0015AE  90D8               	bcf	status,0,c
  6506  0015B0  320F               	rrcf	i2___ftmul@f1+2,f,c
  6507  0015B2  320E               	rrcf	i2___ftmul@f1+1,f,c
  6508  0015B4  320D               	rrcf	i2___ftmul@f1,f,c
  6509  0015B6  90D8               	bcf	status,0,c
  6510  0015B8  3610               	rlcf	i2___ftmul@f2,f,c
  6511  0015BA  3611               	rlcf	i2___ftmul@f2+1,f,c
  6512  0015BC  3612               	rlcf	i2___ftmul@f2+2,f,c
  6513  0015BE  2E1A               	decfsz	i2___ftmul@cntr,f,c
  6514  0015C0  D7EE               	goto	i2l3320
  6515  0015C2  0E09               	movlw	9
  6516  0015C4  6E1A               	movwf	i2___ftmul@cntr,c
  6517  0015C6                     i2l3330:
  6518  0015C6  A00D               	btfss	i2___ftmul@f1,0,c
  6519  0015C8  D006               	goto	i2l3334
  6520  0015CA  5010               	movf	i2___ftmul@f2,w,c
  6521  0015CC  2617               	addwf	i2___ftmul@f3_as_product,f,c
  6522  0015CE  5011               	movf	i2___ftmul@f2+1,w,c
  6523  0015D0  2218               	addwfc	i2___ftmul@f3_as_product+1,f,c
  6524  0015D2  5012               	movf	i2___ftmul@f2+2,w,c
  6525  0015D4  2219               	addwfc	i2___ftmul@f3_as_product+2,f,c
  6526  0015D6                     i2l3334:
  6527  0015D6  90D8               	bcf	status,0,c
  6528  0015D8  320F               	rrcf	i2___ftmul@f1+2,f,c
  6529  0015DA  320E               	rrcf	i2___ftmul@f1+1,f,c
  6530  0015DC  320D               	rrcf	i2___ftmul@f1,f,c
  6531  0015DE  90D8               	bcf	status,0,c
  6532  0015E0  3219               	rrcf	i2___ftmul@f3_as_product+2,f,c
  6533  0015E2  3218               	rrcf	i2___ftmul@f3_as_product+1,f,c
  6534  0015E4  3217               	rrcf	i2___ftmul@f3_as_product,f,c
  6535  0015E6  2E1A               	decfsz	i2___ftmul@cntr,f,c
  6536  0015E8  D7EE               	goto	i2l3330
  6537  0015EA  C017  F001         	movff	i2___ftmul@f3_as_product,i2___ftpack@arg
  6538  0015EE  C018  F002         	movff	i2___ftmul@f3_as_product+1,i2___ftpack@arg+1
  6539  0015F2  C019  F003         	movff	i2___ftmul@f3_as_product+2,i2___ftpack@arg+2
  6540  0015F6  C016  F004         	movff	i2___ftmul@exp,i2___ftpack@exp
  6541  0015FA  C01B  F005         	movff	i2___ftmul@sign,i2___ftpack@sign
  6542  0015FE  EC58  F00C         	call	i2___ftpack	;wreg free
  6543  001602  C001  F00D         	movff	?i2___ftpack,?i2___ftmul
  6544  001606  C002  F00E         	movff	?i2___ftpack+1,?i2___ftmul+1
  6545  00160A  C003  F00F         	movff	?i2___ftpack+2,?i2___ftmul+2
  6546  00160E  0012               	return	
  6547  001610                     __end_ofi2___ftmul:
  6548                           	opt stack 0
  6549                           pclatu	equ	0xFFB
  6550                           pclath	equ	0xFFA
  6551                           tblptru	equ	0xFF8
  6552                           tblptrh	equ	0xFF7
  6553                           tblptrl	equ	0xFF6
  6554                           tablat	equ	0xFF5
  6555                           prodh	equ	0xFF4
  6556                           prodl	equ	0xFF3
  6557                           intcon	equ	0xFF2
  6558                           postinc0	equ	0xFEE
  6559                           fsr0h	equ	0xFEA
  6560                           fsr0l	equ	0xFE9
  6561                           wreg	equ	0xFE8
  6562                           postdec1	equ	0xFE5
  6563                           fsr1h	equ	0xFE2
  6564                           fsr1l	equ	0xFE1
  6565                           postinc2	equ	0xFDE
  6566                           postdec2	equ	0xFDD
  6567                           fsr2h	equ	0xFDA
  6568                           fsr2l	equ	0xFD9
  6569                           status	equ	0xFD8
  6570                           
  6571 ;; *************** function i2___ftdiv *****************
  6572 ;; Defined at:
  6573 ;;		line 54 in file "C:\Program Files (x86)\Microchip\xc8\v1.38\sources\common\ftdiv.c"
  6574 ;; Parameters:    Size  Location     Type
  6575 ;;  f1              3    8[COMRAM] float 
  6576 ;;  f2              3   11[COMRAM] float 
  6577 ;; Auto vars:     Size  Location     Type
  6578 ;;  __ftdiv         3   18[COMRAM] float 
  6579 ;;  __ftdiv         1   22[COMRAM] unsigned char 
  6580 ;;  __ftdiv         1   21[COMRAM] unsigned char 
  6581 ;;  __ftdiv         1   17[COMRAM] unsigned char 
  6582 ;; Return value:  Size  Location     Type
  6583 ;;                  3    8[COMRAM] float 
  6584 ;; Registers used:
  6585 ;;		wreg, status,2, status,0, cstack
  6586 ;; Tracked objects:
  6587 ;;		On entry : 0/0
  6588 ;;		On exit  : 0/0
  6589 ;;		Unchanged: 0/0
  6590 ;; Data sizes:     COMRAM   BANK0   BANK1   BANK2
  6591 ;;      Params:         6       0       0       0
  6592 ;;      Locals:         6       0       0       0
  6593 ;;      Temps:          3       0       0       0
  6594 ;;      Totals:        15       0       0       0
  6595 ;;Total ram usage:       15 bytes
  6596 ;; Hardware stack levels used:    1
  6597 ;; Hardware stack levels required when called:    1
  6598 ;; This function calls:
  6599 ;;		i2___ftpack
  6600 ;; This function is called by:
  6601 ;;		_Cal
  6602 ;;		_Auto_PWM_Cal
  6603 ;; This function uses a non-reentrant model
  6604 ;;
  6605                           
  6606                           	psect	text28
  6607  001702                     __ptext28:
  6608                           	opt stack 0
  6609  001702                     i2___ftdiv:
  6610                           	opt stack 24
  6611                           
  6612                           ;incstack = 0
  6613  001702  C00B  F00F         	movff	i2___ftdiv@f1+2,??i2___ftdiv
  6614  001706  6A10               	clrf	(??i2___ftdiv+1)& (0+255),c
  6615  001708  6A11               	clrf	(??i2___ftdiv+2)& (0+255),c
  6616  00170A  340A               	rlcf	i2___ftdiv@f1+1,w,c
  6617  00170C  360F               	rlcf	??i2___ftdiv& (0+255),f,c
  6618  00170E  E301               	bnc	u237_41
  6619  001710  8010               	bsf	(??i2___ftdiv+1)& (0+255),0,c
  6620  001712                     u237_41:
  6621  001712  500F               	movf	??i2___ftdiv,w,c
  6622  001714  6E16               	movwf	i2___ftdiv@exp,c
  6623  001716  5016               	movf	i2___ftdiv@exp,w,c
  6624  001718  A4D8               	btfss	status,2,c
  6625  00171A  D007               	goto	i2l3254
  6626  00171C  0E00               	movlw	0
  6627  00171E  6E09               	movwf	?i2___ftdiv,c
  6628  001720  0E00               	movlw	0
  6629  001722  6E0A               	movwf	?i2___ftdiv+1,c
  6630  001724  0E00               	movlw	0
  6631  001726  6E0B               	movwf	?i2___ftdiv+2,c
  6632  001728  0012               	return	
  6633  00172A                     i2l3254:
  6634  00172A  C00E  F00F         	movff	i2___ftdiv@f2+2,??i2___ftdiv
  6635  00172E  6A10               	clrf	(??i2___ftdiv+1)& (0+255),c
  6636  001730  6A11               	clrf	(??i2___ftdiv+2)& (0+255),c
  6637  001732  340D               	rlcf	i2___ftdiv@f2+1,w,c
  6638  001734  360F               	rlcf	??i2___ftdiv& (0+255),f,c
  6639  001736  E301               	bnc	u239_41
  6640  001738  8010               	bsf	(??i2___ftdiv+1)& (0+255),0,c
  6641  00173A                     u239_41:
  6642  00173A  500F               	movf	??i2___ftdiv,w,c
  6643  00173C  6E17               	movwf	i2___ftdiv@sign,c
  6644  00173E  5017               	movf	i2___ftdiv@sign,w,c
  6645  001740  A4D8               	btfss	status,2,c
  6646  001742  D007               	goto	i2l3260
  6647  001744  0E00               	movlw	0
  6648  001746  6E09               	movwf	?i2___ftdiv,c
  6649  001748  0E00               	movlw	0
  6650  00174A  6E0A               	movwf	?i2___ftdiv+1,c
  6651  00174C  0E00               	movlw	0
  6652  00174E  6E0B               	movwf	?i2___ftdiv+2,c
  6653  001750  0012               	return	
  6654  001752                     i2l3260:
  6655  001752  0E00               	movlw	0
  6656  001754  6E13               	movwf	i2___ftdiv@f3,c
  6657  001756  0E00               	movlw	0
  6658  001758  6E14               	movwf	i2___ftdiv@f3+1,c
  6659  00175A  0E00               	movlw	0
  6660  00175C  6E15               	movwf	i2___ftdiv@f3+2,c
  6661  00175E  5017               	movf	i2___ftdiv@sign,w,c
  6662  001760  0F89               	addlw	137
  6663  001762  5E16               	subwf	i2___ftdiv@exp,f,c
  6664  001764  C00B  F017         	movff	i2___ftdiv@f1+2,i2___ftdiv@sign
  6665  001768  500E               	movf	i2___ftdiv@f2+2,w,c
  6666  00176A  1A17               	xorwf	i2___ftdiv@sign,f,c
  6667  00176C  0E80               	movlw	128
  6668  00176E  1617               	andwf	i2___ftdiv@sign,f,c
  6669  001770  8E0A               	bsf	i2___ftdiv@f1+1,7,c
  6670  001772  0EFF               	movlw	255
  6671  001774  1609               	andwf	i2___ftdiv@f1,f,c
  6672  001776  0EFF               	movlw	255
  6673  001778  160A               	andwf	i2___ftdiv@f1+1,f,c
  6674  00177A  0E00               	movlw	0
  6675  00177C  160B               	andwf	i2___ftdiv@f1+2,f,c
  6676  00177E  8E0D               	bsf	i2___ftdiv@f2+1,7,c
  6677  001780  0EFF               	movlw	255
  6678  001782  160C               	andwf	i2___ftdiv@f2,f,c
  6679  001784  0EFF               	movlw	255
  6680  001786  160D               	andwf	i2___ftdiv@f2+1,f,c
  6681  001788  0E00               	movlw	0
  6682  00178A  160E               	andwf	i2___ftdiv@f2+2,f,c
  6683  00178C  0E18               	movlw	24
  6684  00178E  6E12               	movwf	i2___ftdiv@cntr,c
  6685  001790                     i2l3280:
  6686  001790  90D8               	bcf	status,0,c
  6687  001792  3613               	rlcf	i2___ftdiv@f3,f,c
  6688  001794  3614               	rlcf	i2___ftdiv@f3+1,f,c
  6689  001796  3615               	rlcf	i2___ftdiv@f3+2,f,c
  6690  001798  500C               	movf	i2___ftdiv@f2,w,c
  6691  00179A  5C09               	subwf	i2___ftdiv@f1,w,c
  6692  00179C  500D               	movf	i2___ftdiv@f2+1,w,c
  6693  00179E  580A               	subwfb	i2___ftdiv@f1+1,w,c
  6694  0017A0  500E               	movf	i2___ftdiv@f2+2,w,c
  6695  0017A2  580B               	subwfb	i2___ftdiv@f1+2,w,c
  6696  0017A4  A0D8               	btfss	status,0,c
  6697  0017A6  D007               	goto	i2l1585
  6698  0017A8  500C               	movf	i2___ftdiv@f2,w,c
  6699  0017AA  5E09               	subwf	i2___ftdiv@f1,f,c
  6700  0017AC  500D               	movf	i2___ftdiv@f2+1,w,c
  6701  0017AE  5A0A               	subwfb	i2___ftdiv@f1+1,f,c
  6702  0017B0  500E               	movf	i2___ftdiv@f2+2,w,c
  6703  0017B2  5A0B               	subwfb	i2___ftdiv@f1+2,f,c
  6704  0017B4  8013               	bsf	i2___ftdiv@f3,0,c
  6705  0017B6                     i2l1585:
  6706  0017B6  90D8               	bcf	status,0,c
  6707  0017B8  3609               	rlcf	i2___ftdiv@f1,f,c
  6708  0017BA  360A               	rlcf	i2___ftdiv@f1+1,f,c
  6709  0017BC  360B               	rlcf	i2___ftdiv@f1+2,f,c
  6710  0017BE  2E12               	decfsz	i2___ftdiv@cntr,f,c
  6711  0017C0  D7E7               	goto	i2l3280
  6712  0017C2  C013  F001         	movff	i2___ftdiv@f3,i2___ftpack@arg
  6713  0017C6  C014  F002         	movff	i2___ftdiv@f3+1,i2___ftpack@arg+1
  6714  0017CA  C015  F003         	movff	i2___ftdiv@f3+2,i2___ftpack@arg+2
  6715  0017CE  C016  F004         	movff	i2___ftdiv@exp,i2___ftpack@exp
  6716  0017D2  C017  F005         	movff	i2___ftdiv@sign,i2___ftpack@sign
  6717  0017D6  EC58  F00C         	call	i2___ftpack	;wreg free
  6718  0017DA  C001  F009         	movff	?i2___ftpack,?i2___ftdiv
  6719  0017DE  C002  F00A         	movff	?i2___ftpack+1,?i2___ftdiv+1
  6720  0017E2  C003  F00B         	movff	?i2___ftpack+2,?i2___ftdiv+2
  6721  0017E6  0012               	return	
  6722  0017E8                     __end_ofi2___ftdiv:
  6723                           	opt stack 0
  6724                           pclatu	equ	0xFFB
  6725                           pclath	equ	0xFFA
  6726                           tblptru	equ	0xFF8
  6727                           tblptrh	equ	0xFF7
  6728                           tblptrl	equ	0xFF6
  6729                           tablat	equ	0xFF5
  6730                           prodh	equ	0xFF4
  6731                           prodl	equ	0xFF3
  6732                           intcon	equ	0xFF2
  6733                           postinc0	equ	0xFEE
  6734                           fsr0h	equ	0xFEA
  6735                           fsr0l	equ	0xFE9
  6736                           wreg	equ	0xFE8
  6737                           postdec1	equ	0xFE5
  6738                           fsr1h	equ	0xFE2
  6739                           fsr1l	equ	0xFE1
  6740                           postinc2	equ	0xFDE
  6741                           postdec2	equ	0xFDD
  6742                           fsr2h	equ	0xFDA
  6743                           fsr2l	equ	0xFD9
  6744                           status	equ	0xFD8
  6745                           
  6746 ;; *************** function i2___ftadd *****************
  6747 ;; Defined at:
  6748 ;;		line 86 in file "C:\Program Files (x86)\Microchip\xc8\v1.38\sources\common\ftadd.c"
  6749 ;; Parameters:    Size  Location     Type
  6750 ;;  f1              3   23[COMRAM] float 
  6751 ;;  f2              3   26[COMRAM] float 
  6752 ;; Auto vars:     Size  Location     Type
  6753 ;;  __ftadd         1   34[COMRAM] unsigned char 
  6754 ;;  __ftadd         1   33[COMRAM] unsigned char 
  6755 ;;  __ftadd         1   32[COMRAM] unsigned char 
  6756 ;; Return value:  Size  Location     Type
  6757 ;;                  3   23[COMRAM] float 
  6758 ;; Registers used:
  6759 ;;		wreg, status,2, status,0, cstack
  6760 ;; Tracked objects:
  6761 ;;		On entry : 0/0
  6762 ;;		On exit  : 0/0
  6763 ;;		Unchanged: 0/0
  6764 ;; Data sizes:     COMRAM   BANK0   BANK1   BANK2
  6765 ;;      Params:         6       0       0       0
  6766 ;;      Locals:         3       0       0       0
  6767 ;;      Temps:          3       0       0       0
  6768 ;;      Totals:        12       0       0       0
  6769 ;;Total ram usage:       12 bytes
  6770 ;; Hardware stack levels used:    1
  6771 ;; Hardware stack levels required when called:    1
  6772 ;; This function calls:
  6773 ;;		i2___ftpack
  6774 ;; This function is called by:
  6775 ;;		_Cal
  6776 ;;		_Auto_PWM_Cal
  6777 ;;		_Push_Button
  6778 ;; This function uses a non-reentrant model
  6779 ;;
  6780                           
  6781                           	psect	text29
  6782  000C5A                     __ptext29:
  6783                           	opt stack 0
  6784  000C5A                     i2___ftadd:
  6785                           	opt stack 25
  6786                           
  6787                           ;incstack = 0
  6788  000C5A  C01A  F01E         	movff	i2___ftadd@f1+2,??i2___ftadd
  6789  000C5E  6A1F               	clrf	(??i2___ftadd+1)& (0+255),c
  6790  000C60  6A20               	clrf	(??i2___ftadd+2)& (0+255),c
  6791  000C62  3419               	rlcf	i2___ftadd@f1+1,w,c
  6792  000C64  361E               	rlcf	??i2___ftadd& (0+255),f,c
  6793  000C66  E301               	bnc	u216_41
  6794  000C68  801F               	bsf	(??i2___ftadd+1)& (0+255),0,c
  6795  000C6A                     u216_41:
  6796  000C6A  501E               	movf	??i2___ftadd,w,c
  6797  000C6C  6E23               	movwf	i2___ftadd@exp1,c
  6798  000C6E  C01D  F01E         	movff	i2___ftadd@f2+2,??i2___ftadd
  6799  000C72  6A1F               	clrf	(??i2___ftadd+1)& (0+255),c
  6800  000C74  6A20               	clrf	(??i2___ftadd+2)& (0+255),c
  6801  000C76  341C               	rlcf	i2___ftadd@f2+1,w,c
  6802  000C78  361E               	rlcf	??i2___ftadd& (0+255),f,c
  6803  000C7A  E301               	bnc	u217_41
  6804  000C7C  801F               	bsf	(??i2___ftadd+1)& (0+255),0,c
  6805  000C7E                     u217_41:
  6806  000C7E  501E               	movf	??i2___ftadd,w,c
  6807  000C80  6E22               	movwf	i2___ftadd@exp2,c
  6808  000C82  5023               	movf	i2___ftadd@exp1,w,c
  6809  000C84  B4D8               	btfsc	status,2,c
  6810  000C86  D00B               	goto	i2l1550
  6811  000C88  5022               	movf	i2___ftadd@exp2,w,c
  6812  000C8A  5C23               	subwf	i2___ftadd@exp1,w,c
  6813  000C8C  B0D8               	btfsc	status,0,c
  6814  000C8E  D00E               	goto	i2l3186
  6815  000C90  5023               	movf	i2___ftadd@exp1,w,c
  6816  000C92  0800               	sublw	0
  6817  000C94  2422               	addwf	i2___ftadd@exp2,w,c
  6818  000C96  6E1E               	movwf	??i2___ftadd& (0+255),c
  6819  000C98  0E18               	movlw	24
  6820  000C9A  641E               	cpfsgt	??i2___ftadd,c
  6821  000C9C  D007               	goto	i2l3186
  6822  000C9E                     i2l1550:
  6823  000C9E  C01B  F018         	movff	i2___ftadd@f2,?i2___ftadd
  6824  000CA2  C01C  F019         	movff	i2___ftadd@f2+1,?i2___ftadd+1
  6825  000CA6  C01D  F01A         	movff	i2___ftadd@f2+2,?i2___ftadd+2
  6826  000CAA  0012               	return	
  6827  000CAC                     i2l3186:
  6828  000CAC  5022               	movf	i2___ftadd@exp2,w,c
  6829  000CAE  B4D8               	btfsc	status,2,c
  6830  000CB0  D00B               	goto	i2l1554
  6831  000CB2  5023               	movf	i2___ftadd@exp1,w,c
  6832  000CB4  5C22               	subwf	i2___ftadd@exp2,w,c
  6833  000CB6  B0D8               	btfsc	status,0,c
  6834  000CB8  D00E               	goto	i2l3192
  6835  000CBA  5022               	movf	i2___ftadd@exp2,w,c
  6836  000CBC  0800               	sublw	0
  6837  000CBE  2423               	addwf	i2___ftadd@exp1,w,c
  6838  000CC0  6E1E               	movwf	??i2___ftadd& (0+255),c
  6839  000CC2  0E18               	movlw	24
  6840  000CC4  641E               	cpfsgt	??i2___ftadd,c
  6841  000CC6  D007               	goto	i2l3192
  6842  000CC8                     i2l1554:
  6843  000CC8  C018  F018         	movff	i2___ftadd@f1,?i2___ftadd
  6844  000CCC  C019  F019         	movff	i2___ftadd@f1+1,?i2___ftadd+1
  6845  000CD0  C01A  F01A         	movff	i2___ftadd@f1+2,?i2___ftadd+2
  6846  000CD4  0012               	return	
  6847  000CD6                     i2l3192:
  6848  000CD6  0E06               	movlw	6
  6849  000CD8  6E21               	movwf	i2___ftadd@sign,c
  6850  000CDA  BE1A               	btfsc	i2___ftadd@f1+2,7,c
  6851  000CDC  8E21               	bsf	i2___ftadd@sign,7,c
  6852  000CDE  BE1D               	btfsc	i2___ftadd@f2+2,7,c
  6853  000CE0  8C21               	bsf	i2___ftadd@sign,6,c
  6854  000CE2  8E19               	bsf	i2___ftadd@f1+1,7,c
  6855  000CE4  0EFF               	movlw	255
  6856  000CE6  1618               	andwf	i2___ftadd@f1,f,c
  6857  000CE8  0EFF               	movlw	255
  6858  000CEA  1619               	andwf	i2___ftadd@f1+1,f,c
  6859  000CEC  0E00               	movlw	0
  6860  000CEE  161A               	andwf	i2___ftadd@f1+2,f,c
  6861  000CF0  8E1C               	bsf	i2___ftadd@f2+1,7,c
  6862  000CF2  0EFF               	movlw	255
  6863  000CF4  161B               	andwf	i2___ftadd@f2,f,c
  6864  000CF6  0EFF               	movlw	255
  6865  000CF8  161C               	andwf	i2___ftadd@f2+1,f,c
  6866  000CFA  0E00               	movlw	0
  6867  000CFC  161D               	andwf	i2___ftadd@f2+2,f,c
  6868  000CFE  5022               	movf	i2___ftadd@exp2,w,c
  6869  000D00  5C23               	subwf	i2___ftadd@exp1,w,c
  6870  000D02  B0D8               	btfsc	status,0,c
  6871  000D04  D01B               	goto	i2l3218
  6872  000D06                     i2l3208:
  6873  000D06  90D8               	bcf	status,0,c
  6874  000D08  361B               	rlcf	i2___ftadd@f2,f,c
  6875  000D0A  361C               	rlcf	i2___ftadd@f2+1,f,c
  6876  000D0C  361D               	rlcf	i2___ftadd@f2+2,f,c
  6877  000D0E  0622               	decf	i2___ftadd@exp2,f,c
  6878  000D10  5023               	movf	i2___ftadd@exp1,w,c
  6879  000D12  1822               	xorwf	i2___ftadd@exp2,w,c
  6880  000D14  B4D8               	btfsc	status,2,c
  6881  000D16  D00D               	goto	i2l3216
  6882  000D18  0621               	decf	i2___ftadd@sign,f,c
  6883  000D1A  C021  F01E         	movff	i2___ftadd@sign,??i2___ftadd
  6884  000D1E  0E07               	movlw	7
  6885  000D20  161E               	andwf	??i2___ftadd,f,c
  6886  000D22  B4D8               	btfsc	status,2,c
  6887  000D24  D006               	goto	i2l3216
  6888  000D26  D7EF               	goto	i2l3208
  6889  000D28                     i2l3214:
  6890  000D28  90D8               	bcf	status,0,c
  6891  000D2A  321A               	rrcf	i2___ftadd@f1+2,f,c
  6892  000D2C  3219               	rrcf	i2___ftadd@f1+1,f,c
  6893  000D2E  3218               	rrcf	i2___ftadd@f1,f,c
  6894  000D30  2A23               	incf	i2___ftadd@exp1,f,c
  6895  000D32                     i2l3216:
  6896  000D32  5022               	movf	i2___ftadd@exp2,w,c
  6897  000D34  1823               	xorwf	i2___ftadd@exp1,w,c
  6898  000D36  B4D8               	btfsc	status,2,c
  6899  000D38  D01F               	goto	i2l1565
  6900  000D3A  D7F6               	goto	i2l3214
  6901  000D3C                     i2l3218:
  6902  000D3C  5023               	movf	i2___ftadd@exp1,w,c
  6903  000D3E  5C22               	subwf	i2___ftadd@exp2,w,c
  6904  000D40  B0D8               	btfsc	status,0,c
  6905  000D42  D01A               	goto	i2l1565
  6906  000D44                     i2l3220:
  6907  000D44  90D8               	bcf	status,0,c
  6908  000D46  3618               	rlcf	i2___ftadd@f1,f,c
  6909  000D48  3619               	rlcf	i2___ftadd@f1+1,f,c
  6910  000D4A  361A               	rlcf	i2___ftadd@f1+2,f,c
  6911  000D4C  0623               	decf	i2___ftadd@exp1,f,c
  6912  000D4E  5023               	movf	i2___ftadd@exp1,w,c
  6913  000D50  1822               	xorwf	i2___ftadd@exp2,w,c
  6914  000D52  B4D8               	btfsc	status,2,c
  6915  000D54  D00D               	goto	i2l3228
  6916  000D56  0621               	decf	i2___ftadd@sign,f,c
  6917  000D58  C021  F01E         	movff	i2___ftadd@sign,??i2___ftadd
  6918  000D5C  0E07               	movlw	7
  6919  000D5E  161E               	andwf	??i2___ftadd,f,c
  6920  000D60  B4D8               	btfsc	status,2,c
  6921  000D62  D006               	goto	i2l3228
  6922  000D64  D7EF               	goto	i2l3220
  6923  000D66                     i2l3226:
  6924  000D66  90D8               	bcf	status,0,c
  6925  000D68  321D               	rrcf	i2___ftadd@f2+2,f,c
  6926  000D6A  321C               	rrcf	i2___ftadd@f2+1,f,c
  6927  000D6C  321B               	rrcf	i2___ftadd@f2,f,c
  6928  000D6E  2A22               	incf	i2___ftadd@exp2,f,c
  6929  000D70                     i2l3228:
  6930  000D70  5022               	movf	i2___ftadd@exp2,w,c
  6931  000D72  1823               	xorwf	i2___ftadd@exp1,w,c
  6932  000D74  A4D8               	btfss	status,2,c
  6933  000D76  D7F7               	goto	i2l3226
  6934  000D78                     i2l1565:
  6935  000D78  AE21               	btfss	i2___ftadd@sign,7,c
  6936  000D7A  D00C               	goto	i2l1574
  6937  000D7C  0EFF               	movlw	255
  6938  000D7E  1A18               	xorwf	i2___ftadd@f1,f,c
  6939  000D80  0EFF               	movlw	255
  6940  000D82  1A19               	xorwf	i2___ftadd@f1+1,f,c
  6941  000D84  0EFF               	movlw	255
  6942  000D86  1A1A               	xorwf	i2___ftadd@f1+2,f,c
  6943  000D88  0E01               	movlw	1
  6944  000D8A  2618               	addwf	i2___ftadd@f1,f,c
  6945  000D8C  0E00               	movlw	0
  6946  000D8E  2219               	addwfc	i2___ftadd@f1+1,f,c
  6947  000D90  0E00               	movlw	0
  6948  000D92  221A               	addwfc	i2___ftadd@f1+2,f,c
  6949  000D94                     i2l1574:
  6950  000D94  AC21               	btfss	i2___ftadd@sign,6,c
  6951  000D96  D00C               	goto	i2l3234
  6952  000D98  0EFF               	movlw	255
  6953  000D9A  1A1B               	xorwf	i2___ftadd@f2,f,c
  6954  000D9C  0EFF               	movlw	255
  6955  000D9E  1A1C               	xorwf	i2___ftadd@f2+1,f,c
  6956  000DA0  0EFF               	movlw	255
  6957  000DA2  1A1D               	xorwf	i2___ftadd@f2+2,f,c
  6958  000DA4  0E01               	movlw	1
  6959  000DA6  261B               	addwf	i2___ftadd@f2,f,c
  6960  000DA8  0E00               	movlw	0
  6961  000DAA  221C               	addwfc	i2___ftadd@f2+1,f,c
  6962  000DAC  0E00               	movlw	0
  6963  000DAE  221D               	addwfc	i2___ftadd@f2+2,f,c
  6964  000DB0                     i2l3234:
  6965  000DB0  0E00               	movlw	0
  6966  000DB2  6E21               	movwf	i2___ftadd@sign,c
  6967  000DB4  5018               	movf	i2___ftadd@f1,w,c
  6968  000DB6  261B               	addwf	i2___ftadd@f2,f,c
  6969  000DB8  5019               	movf	i2___ftadd@f1+1,w,c
  6970  000DBA  221C               	addwfc	i2___ftadd@f2+1,f,c
  6971  000DBC  501A               	movf	i2___ftadd@f1+2,w,c
  6972  000DBE  221D               	addwfc	i2___ftadd@f2+2,f,c
  6973  000DC0  AE1D               	btfss	i2___ftadd@f2+2,7,c
  6974  000DC2  D00E               	goto	i2l3244
  6975  000DC4  0EFF               	movlw	255
  6976  000DC6  1A1B               	xorwf	i2___ftadd@f2,f,c
  6977  000DC8  0EFF               	movlw	255
  6978  000DCA  1A1C               	xorwf	i2___ftadd@f2+1,f,c
  6979  000DCC  0EFF               	movlw	255
  6980  000DCE  1A1D               	xorwf	i2___ftadd@f2+2,f,c
  6981  000DD0  0E01               	movlw	1
  6982  000DD2  261B               	addwf	i2___ftadd@f2,f,c
  6983  000DD4  0E00               	movlw	0
  6984  000DD6  221C               	addwfc	i2___ftadd@f2+1,f,c
  6985  000DD8  0E00               	movlw	0
  6986  000DDA  221D               	addwfc	i2___ftadd@f2+2,f,c
  6987  000DDC  0E01               	movlw	1
  6988  000DDE  6E21               	movwf	i2___ftadd@sign,c
  6989  000DE0                     i2l3244:
  6990  000DE0  C01B  F001         	movff	i2___ftadd@f2,i2___ftpack@arg
  6991  000DE4  C01C  F002         	movff	i2___ftadd@f2+1,i2___ftpack@arg+1
  6992  000DE8  C01D  F003         	movff	i2___ftadd@f2+2,i2___ftpack@arg+2
  6993  000DEC  C023  F004         	movff	i2___ftadd@exp1,i2___ftpack@exp
  6994  000DF0  C021  F005         	movff	i2___ftadd@sign,i2___ftpack@sign
  6995  000DF4  EC58  F00C         	call	i2___ftpack	;wreg free
  6996  000DF8  C001  F018         	movff	?i2___ftpack,?i2___ftadd
  6997  000DFC  C002  F019         	movff	?i2___ftpack+1,?i2___ftadd+1
  6998  000E00  C003  F01A         	movff	?i2___ftpack+2,?i2___ftadd+2
  6999  000E04  0012               	return	
  7000  000E06                     __end_ofi2___ftadd:
  7001                           	opt stack 0
  7002                           pclatu	equ	0xFFB
  7003                           pclath	equ	0xFFA
  7004                           tblptru	equ	0xFF8
  7005                           tblptrh	equ	0xFF7
  7006                           tblptrl	equ	0xFF6
  7007                           tablat	equ	0xFF5
  7008                           prodh	equ	0xFF4
  7009                           prodl	equ	0xFF3
  7010                           intcon	equ	0xFF2
  7011                           postinc0	equ	0xFEE
  7012                           fsr0h	equ	0xFEA
  7013                           fsr0l	equ	0xFE9
  7014                           wreg	equ	0xFE8
  7015                           postdec1	equ	0xFE5
  7016                           fsr1h	equ	0xFE2
  7017                           fsr1l	equ	0xFE1
  7018                           postinc2	equ	0xFDE
  7019                           postdec2	equ	0xFDD
  7020                           fsr2h	equ	0xFDA
  7021                           fsr2l	equ	0xFD9
  7022                           status	equ	0xFD8
  7023                           
  7024 ;; *************** function ___lbtoft *****************
  7025 ;; Defined at:
  7026 ;;		line 27 in file "C:\Program Files (x86)\Microchip\xc8\v1.38\sources\common\lbtoft.c"
  7027 ;; Parameters:    Size  Location     Type
  7028 ;;  c               1    wreg     unsigned char 
  7029 ;; Auto vars:     Size  Location     Type
  7030 ;;  c               1   11[COMRAM] unsigned char 
  7031 ;; Return value:  Size  Location     Type
  7032 ;;                  3    8[COMRAM] float 
  7033 ;; Registers used:
  7034 ;;		wreg, status,2, status,0, cstack
  7035 ;; Tracked objects:
  7036 ;;		On entry : 0/0
  7037 ;;		On exit  : 0/0
  7038 ;;		Unchanged: 0/0
  7039 ;; Data sizes:     COMRAM   BANK0   BANK1   BANK2
  7040 ;;      Params:         3       0       0       0
  7041 ;;      Locals:         1       0       0       0
  7042 ;;      Temps:          0       0       0       0
  7043 ;;      Totals:         4       0       0       0
  7044 ;;Total ram usage:        4 bytes
  7045 ;; Hardware stack levels used:    1
  7046 ;; Hardware stack levels required when called:    1
  7047 ;; This function calls:
  7048 ;;		i2___ftpack
  7049 ;; This function is called by:
  7050 ;;		_Auto_PWM_Cal
  7051 ;;		_UART_Data
  7052 ;; This function uses a non-reentrant model
  7053 ;;
  7054                           
  7055                           	psect	text30
  7056  001C96                     __ptext30:
  7057                           	opt stack 0
  7058  001C96                     ___lbtoft:
  7059                           	opt stack 25
  7060                           
  7061                           ;incstack = 0
  7062                           ;___lbtoft@c stored from wreg
  7063  001C96  6E0C               	movwf	___lbtoft@c,c
  7064  001C98  500C               	movf	___lbtoft@c,w,c
  7065  001C9A  6E01               	movwf	i2___ftpack@arg,c
  7066  001C9C  6A02               	clrf	i2___ftpack@arg+1,c
  7067  001C9E  6A03               	clrf	i2___ftpack@arg+2,c
  7068  001CA0  0E8E               	movlw	142
  7069  001CA2  6E04               	movwf	i2___ftpack@exp,c
  7070  001CA4  0E00               	movlw	0
  7071  001CA6  6E05               	movwf	i2___ftpack@sign,c
  7072  001CA8  EC58  F00C         	call	i2___ftpack	;wreg free
  7073  001CAC  C001  F009         	movff	?i2___ftpack,?___lbtoft
  7074  001CB0  C002  F00A         	movff	?i2___ftpack+1,?___lbtoft+1
  7075  001CB4  C003  F00B         	movff	?i2___ftpack+2,?___lbtoft+2
  7076  001CB8  0012               	return	
  7077  001CBA                     __end_of___lbtoft:
  7078                           	opt stack 0
  7079                           pclatu	equ	0xFFB
  7080                           pclath	equ	0xFFA
  7081                           tblptru	equ	0xFF8
  7082                           tblptrh	equ	0xFF7
  7083                           tblptrl	equ	0xFF6
  7084                           tablat	equ	0xFF5
  7085                           prodh	equ	0xFF4
  7086                           prodl	equ	0xFF3
  7087                           intcon	equ	0xFF2
  7088                           postinc0	equ	0xFEE
  7089                           fsr0h	equ	0xFEA
  7090                           fsr0l	equ	0xFE9
  7091                           wreg	equ	0xFE8
  7092                           postdec1	equ	0xFE5
  7093                           fsr1h	equ	0xFE2
  7094                           fsr1l	equ	0xFE1
  7095                           postinc2	equ	0xFDE
  7096                           postdec2	equ	0xFDD
  7097                           fsr2h	equ	0xFDA
  7098                           fsr2l	equ	0xFD9
  7099                           status	equ	0xFD8
  7100                           
  7101 ;; *************** function i2___ftpack *****************
  7102 ;; Defined at:
  7103 ;;		line 62 in file "C:\Program Files (x86)\Microchip\xc8\v1.38\sources\common\float.c"
  7104 ;; Parameters:    Size  Location     Type
  7105 ;;  arg             3    0[COMRAM] unsigned um
  7106 ;;  exp             1    3[COMRAM] unsigned char 
  7107 ;;  sign            1    4[COMRAM] unsigned char 
  7108 ;; Auto vars:     Size  Location     Type
  7109 ;;		None
  7110 ;; Return value:  Size  Location     Type
  7111 ;;                  3    0[COMRAM] float 
  7112 ;; Registers used:
  7113 ;;		wreg, status,2, status,0
  7114 ;; Tracked objects:
  7115 ;;		On entry : 0/0
  7116 ;;		On exit  : 0/0
  7117 ;;		Unchanged: 0/0
  7118 ;; Data sizes:     COMRAM   BANK0   BANK1   BANK2
  7119 ;;      Params:         5       0       0       0
  7120 ;;      Locals:         0       0       0       0
  7121 ;;      Temps:          3       0       0       0
  7122 ;;      Totals:         8       0       0       0
  7123 ;;Total ram usage:        8 bytes
  7124 ;; Hardware stack levels used:    1
  7125 ;; This function calls:
  7126 ;;		Nothing
  7127 ;; This function is called by:
  7128 ;;		___lbtoft
  7129 ;;		i2___ftadd
  7130 ;;		i2___ftdiv
  7131 ;;		i2___ftmul
  7132 ;; This function uses a non-reentrant model
  7133 ;;
  7134                           
  7135                           	psect	text31
  7136  0018B0                     __ptext31:
  7137                           	opt stack 0
  7138  0018B0                     i2___ftpack:
  7139                           	opt stack 25
  7140                           
  7141                           ;incstack = 0
  7142  0018B0  5004               	movf	i2___ftpack@exp,w,c
  7143  0018B2  B4D8               	btfsc	status,2,c
  7144  0018B4  D005               	goto	i2l3146
  7145  0018B6  5001               	movf	i2___ftpack@arg,w,c
  7146  0018B8  1002               	iorwf	i2___ftpack@arg+1,w,c
  7147  0018BA  1003               	iorwf	i2___ftpack@arg+2,w,c
  7148  0018BC  A4D8               	btfss	status,2,c
  7149  0018BE  D00C               	goto	i2l3152
  7150  0018C0                     i2l3146:
  7151  0018C0  0E00               	movlw	0
  7152  0018C2  6E01               	movwf	?i2___ftpack,c
  7153  0018C4  0E00               	movlw	0
  7154  0018C6  6E02               	movwf	?i2___ftpack+1,c
  7155  0018C8  0E00               	movlw	0
  7156  0018CA  6E03               	movwf	?i2___ftpack+2,c
  7157  0018CC  0012               	return	
  7158  0018CE                     i2l3150:
  7159  0018CE  2A04               	incf	i2___ftpack@exp,f,c
  7160  0018D0  90D8               	bcf	status,0,c
  7161  0018D2  3203               	rrcf	i2___ftpack@arg+2,f,c
  7162  0018D4  3202               	rrcf	i2___ftpack@arg+1,f,c
  7163  0018D6  3201               	rrcf	i2___ftpack@arg,f,c
  7164  0018D8                     i2l3152:
  7165  0018D8  0E00               	movlw	0
  7166  0018DA  1401               	andwf	i2___ftpack@arg,w,c
  7167  0018DC  6E06               	movwf	??i2___ftpack& (0+255),c
  7168  0018DE  0E00               	movlw	0
  7169  0018E0  1402               	andwf	i2___ftpack@arg+1,w,c
  7170  0018E2  6E07               	movwf	(??i2___ftpack+1)& (0+255),c
  7171  0018E4  0EFE               	movlw	254
  7172  0018E6  1403               	andwf	i2___ftpack@arg+2,w,c
  7173  0018E8  6E08               	movwf	(??i2___ftpack+2)& (0+255),c
  7174  0018EA  5006               	movf	??i2___ftpack,w,c
  7175  0018EC  1007               	iorwf	??i2___ftpack+1,w,c
  7176  0018EE  1008               	iorwf	??i2___ftpack+2,w,c
  7177  0018F0  B4D8               	btfsc	status,2,c
  7178  0018F2  D00C               	goto	i2l3158
  7179  0018F4  D7EC               	goto	i2l3150
  7180  0018F6                     i2l3154:
  7181  0018F6  2A04               	incf	i2___ftpack@exp,f,c
  7182  0018F8  0E01               	movlw	1
  7183  0018FA  2601               	addwf	i2___ftpack@arg,f,c
  7184  0018FC  0E00               	movlw	0
  7185  0018FE  2202               	addwfc	i2___ftpack@arg+1,f,c
  7186  001900  0E00               	movlw	0
  7187  001902  2203               	addwfc	i2___ftpack@arg+2,f,c
  7188  001904  90D8               	bcf	status,0,c
  7189  001906  3203               	rrcf	i2___ftpack@arg+2,f,c
  7190  001908  3202               	rrcf	i2___ftpack@arg+1,f,c
  7191  00190A  3201               	rrcf	i2___ftpack@arg,f,c
  7192  00190C                     i2l3158:
  7193  00190C  0E00               	movlw	0
  7194  00190E  1401               	andwf	i2___ftpack@arg,w,c
  7195  001910  6E06               	movwf	??i2___ftpack& (0+255),c
  7196  001912  0E00               	movlw	0
  7197  001914  1402               	andwf	i2___ftpack@arg+1,w,c
  7198  001916  6E07               	movwf	(??i2___ftpack+1)& (0+255),c
  7199  001918  0EFF               	movlw	255
  7200  00191A  1403               	andwf	i2___ftpack@arg+2,w,c
  7201  00191C  6E08               	movwf	(??i2___ftpack+2)& (0+255),c
  7202  00191E  5006               	movf	??i2___ftpack,w,c
  7203  001920  1007               	iorwf	??i2___ftpack+1,w,c
  7204  001922  1008               	iorwf	??i2___ftpack+2,w,c
  7205  001924  B4D8               	btfsc	status,2,c
  7206  001926  D006               	goto	i2l3162
  7207  001928  D7E6               	goto	i2l3154
  7208  00192A                     i2l3160:
  7209  00192A  0604               	decf	i2___ftpack@exp,f,c
  7210  00192C  90D8               	bcf	status,0,c
  7211  00192E  3601               	rlcf	i2___ftpack@arg,f,c
  7212  001930  3602               	rlcf	i2___ftpack@arg+1,f,c
  7213  001932  3603               	rlcf	i2___ftpack@arg+2,f,c
  7214  001934                     i2l3162:
  7215  001934  BE02               	btfsc	i2___ftpack@arg+1,7,c
  7216  001936  D003               	goto	i2l1527
  7217  001938  0E02               	movlw	2
  7218  00193A  6004               	cpfslt	i2___ftpack@exp,c
  7219  00193C  D7F6               	goto	i2l3160
  7220  00193E                     i2l1527:
  7221  00193E  A004               	btfss	i2___ftpack@exp,0,c
  7222  001940  9E02               	bcf	i2___ftpack@arg+1,7,c
  7223  001942  90D8               	bcf	status,0,c
  7224  001944  3204               	rrcf	i2___ftpack@exp,f,c
  7225  001946  5004               	movf	i2___ftpack@exp,w,c
  7226  001948  1203               	iorwf	i2___ftpack@arg+2,f,c
  7227  00194A  5005               	movf	i2___ftpack@sign,w,c
  7228  00194C  A4D8               	btfss	status,2,c
  7229  00194E  8E03               	bsf	i2___ftpack@arg+2,7,c
  7230  001950  C001  F001         	movff	i2___ftpack@arg,?i2___ftpack
  7231  001954  C002  F002         	movff	i2___ftpack@arg+1,?i2___ftpack+1
  7232  001958  C003  F003         	movff	i2___ftpack@arg+2,?i2___ftpack+2
  7233  00195C  0012               	return	
  7234  00195E                     __end_ofi2___ftpack:
  7235                           	opt stack 0
  7236                           pclatu	equ	0xFFB
  7237                           pclath	equ	0xFFA
  7238                           tblptru	equ	0xFF8
  7239                           tblptrh	equ	0xFF7
  7240                           tblptrl	equ	0xFF6
  7241                           tablat	equ	0xFF5
  7242                           prodh	equ	0xFF4
  7243                           prodl	equ	0xFF3
  7244                           intcon	equ	0xFF2
  7245                           postinc0	equ	0xFEE
  7246                           fsr0h	equ	0xFEA
  7247                           fsr0l	equ	0xFE9
  7248                           wreg	equ	0xFE8
  7249                           postdec1	equ	0xFE5
  7250                           fsr1h	equ	0xFE2
  7251                           fsr1l	equ	0xFE1
  7252                           postinc2	equ	0xFDE
  7253                           postdec2	equ	0xFDD
  7254                           fsr2h	equ	0xFDA
  7255                           fsr2l	equ	0xFD9
  7256                           status	equ	0xFD8
  7257                           pclatu	equ	0xFFB
  7258                           pclath	equ	0xFFA
  7259                           tblptru	equ	0xFF8
  7260                           tblptrh	equ	0xFF7
  7261                           tblptrl	equ	0xFF6
  7262                           tablat	equ	0xFF5
  7263                           prodh	equ	0xFF4
  7264                           prodl	equ	0xFF3
  7265                           intcon	equ	0xFF2
  7266                           postinc0	equ	0xFEE
  7267                           fsr0h	equ	0xFEA
  7268                           fsr0l	equ	0xFE9
  7269                           wreg	equ	0xFE8
  7270                           postdec1	equ	0xFE5
  7271                           fsr1h	equ	0xFE2
  7272                           fsr1l	equ	0xFE1
  7273                           postinc2	equ	0xFDE
  7274                           postdec2	equ	0xFDD
  7275                           fsr2h	equ	0xFDA
  7276                           fsr2l	equ	0xFD9
  7277                           status	equ	0xFD8
  7278                           
  7279                           	psect	rparam
  7280  0000                     pclatu	equ	0xFFB
  7281                           pclath	equ	0xFFA
  7282                           tblptru	equ	0xFF8
  7283                           tblptrh	equ	0xFF7
  7284                           tblptrl	equ	0xFF6
  7285                           tablat	equ	0xFF5
  7286                           prodh	equ	0xFF4
  7287                           prodl	equ	0xFF3
  7288                           intcon	equ	0xFF2
  7289                           postinc0	equ	0xFEE
  7290                           fsr0h	equ	0xFEA
  7291                           fsr0l	equ	0xFE9
  7292                           wreg	equ	0xFE8
  7293                           postdec1	equ	0xFE5
  7294                           fsr1h	equ	0xFE2
  7295                           fsr1l	equ	0xFE1
  7296                           postinc2	equ	0xFDE
  7297                           postdec2	equ	0xFDD
  7298                           fsr2h	equ	0xFDA
  7299                           fsr2l	equ	0xFD9
  7300                           status	equ	0xFD8
  7301                           
  7302                           	psect	temp
  7303  00005F                     btemp:
  7304                           	opt stack 0
  7305  00005F                     	ds	1
  7306  0000                     int$flags	set	btemp
  7307                           pclatu	equ	0xFFB
  7308                           pclath	equ	0xFFA
  7309                           tblptru	equ	0xFF8
  7310                           tblptrh	equ	0xFF7
  7311                           tblptrl	equ	0xFF6
  7312                           tablat	equ	0xFF5
  7313                           prodh	equ	0xFF4
  7314                           prodl	equ	0xFF3
  7315                           intcon	equ	0xFF2
  7316                           postinc0	equ	0xFEE
  7317                           fsr0h	equ	0xFEA
  7318                           fsr0l	equ	0xFE9
  7319                           wreg	equ	0xFE8
  7320                           postdec1	equ	0xFE5
  7321                           fsr1h	equ	0xFE2
  7322                           fsr1l	equ	0xFE1
  7323                           postinc2	equ	0xFDE
  7324                           postdec2	equ	0xFDD
  7325                           fsr2h	equ	0xFDA
  7326                           fsr2l	equ	0xFD9
  7327                           status	equ	0xFD8


Data Sizes:
    Strings     4
    Constant    200
    Data        11
    BSS         163
    Persistent  6
    Stack       0

Auto Spaces:
    Space          Size  Autos    Used
    COMRAM           94     66      94
    BANK0           160     63     159
    BANK1           256      0      56
    BANK2           256      0       0

Pointer List with Targets:

    None.

Critical Paths under _main in COMRAM

    None.

Critical Paths under _ISR in COMRAM

    _Voltage_Error_Trigger->i2___ftge
    _VFD_Current->i2___ftge
    _Cal->i2___fttol
    _Auto_PWM_Cal->i2___fttol
    i2___fttol->i2___ftadd
    i2___ftmul->___lbtoft
    i2___ftdiv->i2___ftpack
    i2___ftadd->i2___ftdiv
    ___lbtoft->i2___ftpack

Critical Paths under _main in BANK0

    _main->___fttol
    ___lwtoft->___ftpack
    ___fttol->___ftmul
    ___ftmul->___ftadd
    ___ftdiv->___ftadd
    ___ftadd->___ftpack

Critical Paths under _ISR in BANK0

    None.

Critical Paths under _main in BANK1

    None.

Critical Paths under _ISR in BANK1

    None.

Critical Paths under _main in BANK2

    None.

Critical Paths under _ISR in BANK2

    None.

Call Graph Tables:

 ---------------------------------------------------------------------------------
 (Depth) Function   	        Calls       Base Space   Used Autos Params    Refs
 ---------------------------------------------------------------------------------
 (0) _main                                                16    16      0   15435
                                             50 BANK0     13    13      0
                    _DC_Bus_Volt_ADC
                      _IO_Initiation
                         _RS485_Data
                    _TIMER0_INITIATE
                    _VFD_CURRENT_ADC
               _VFD_Current_INITIATE
                            ___ftadd
                            ___ftdiv
                             ___ftge
                            ___ftmul
                            ___fttol
                           ___lwtoft
                         _usart_init
                        _usart_str_1
 ---------------------------------------------------------------------------------
 (1) _usart_str_1                                          1     1      0      22
                                              0 BANK0      1     1      0
 ---------------------------------------------------------------------------------
 (1) _usart_init                                           0     0      0       0
 ---------------------------------------------------------------------------------
 (1) ___lwtoft                                             3     0      3    2312
                                              8 BANK0      3     0      3
                    _DC_Bus_Volt_ADC (ARG)
                    _VFD_CURRENT_ADC (ARG)
                           ___ftpack
 ---------------------------------------------------------------------------------
 (1) ___fttol                                             15    11      4     712
                                             35 BANK0     15    11      4
                            ___ftmul (ARG)
 ---------------------------------------------------------------------------------
 (1) ___ftmul                                             15     9      6    3382
                                             20 BANK0     15     9      6
                            ___ftadd (ARG)
                           ___ftpack
 ---------------------------------------------------------------------------------
 (1) ___ftge                                               9     3      6    1104
                                              0 BANK0      9     3      6
 ---------------------------------------------------------------------------------
 (1) ___ftdiv                                             15     9      6    2952
                                             20 BANK0     15     9      6
                            ___ftadd (ARG)
                           ___ftpack
 ---------------------------------------------------------------------------------
 (1) ___ftadd                                             12     6      6    4790
                                              8 BANK0     12     6      6
                           ___ftpack
 ---------------------------------------------------------------------------------
 (2) ___ftpack                                             8     3      5    2034
                                              0 BANK0      8     3      5
 ---------------------------------------------------------------------------------
 (1) _VFD_Current_INITIATE                                 0     0      0       0
 ---------------------------------------------------------------------------------
 (1) _VFD_CURRENT_ADC                                      4     2      2       0
                                              0 BANK0      4     2      2
 ---------------------------------------------------------------------------------
 (1) _TIMER0_INITIATE                                      0     0      0       0
 ---------------------------------------------------------------------------------
 (1) _RS485_Data                                           0     0      0       0
 ---------------------------------------------------------------------------------
 (1) _IO_Initiation                                        0     0      0       0
 ---------------------------------------------------------------------------------
 (1) _DC_Bus_Volt_ADC                                      4     2      2       0
                                              0 BANK0      4     2      2
 ---------------------------------------------------------------------------------
 Estimated maximum stack depth 2
 ---------------------------------------------------------------------------------
 (Depth) Function   	        Calls       Base Space   Used Autos Params    Refs
 ---------------------------------------------------------------------------------
 (3) _ISR                                                 16    16      0   11090
                                             50 COMRAM    16    16      0
                       _Auto_PWM_Cal
                     _Logic_Error_Io
                          _POWER_PWM
                        _Push_Button
                        _VFD_Current
            _VFD_SHORT_CIRCUIT_ERROR
              _Voltage_Error_Trigger
 ---------------------------------------------------------------------------------
 (4) _Voltage_Error_Trigger                                0     0      0     448
                           i2___ftge
 ---------------------------------------------------------------------------------
 (4) _VFD_SHORT_CIRCUIT_ERROR                              0     0      0       0
 ---------------------------------------------------------------------------------
 (4) _VFD_Current                                          0     0      0     448
                           i2___ftge
 ---------------------------------------------------------------------------------
 (4) _Push_Button                                          0     0      0    5834
                                _Cal
                          _POWER_PWM
                          i2___ftadd
                           i2___ftge
 ---------------------------------------------------------------------------------
 (5) i2___ftge                                             9     3      6     448
                                              0 COMRAM     9     3      6
 ---------------------------------------------------------------------------------
 (5) _POWER_PWM                                            0     0      0       0
 ---------------------------------------------------------------------------------
 (5) _Cal                                                  0     0      0    3795
                          i2___ftadd
                          i2___ftdiv
                          i2___ftmul
                          i2___fttol
 ---------------------------------------------------------------------------------
 (4) _Logic_Error_Io                                       0     0      0       0
 ---------------------------------------------------------------------------------
 (4) _Auto_PWM_Cal                                         0     0      0    4360
                           ___lbtoft
                          i2___ftadd
                          i2___ftdiv
                          i2___ftmul
                          i2___fttol
 ---------------------------------------------------------------------------------
 (6) i2___fttol                                           15    11      4     304
                                             35 COMRAM    15    11      4
                          i2___ftadd (ARG)
                          i2___ftdiv (ARG)
 ---------------------------------------------------------------------------------
 (6) i2___ftmul                                           15     9      6     973
                                             12 COMRAM    15     9      6
                           ___lbtoft (ARG)
                         i2___ftpack
 ---------------------------------------------------------------------------------
 (6) i2___ftdiv                                           15     9      6     927
                                              8 COMRAM    15     9      6
                         i2___ftpack
 ---------------------------------------------------------------------------------
 (5) i2___ftadd                                           12     6      6    1591
                                             23 COMRAM    12     6      6
                          i2___ftdiv (ARG)
                         i2___ftpack
 ---------------------------------------------------------------------------------
 (5) ___lbtoft                                             4     1      3     565
                                              8 COMRAM     4     1      3
                         i2___ftpack
 ---------------------------------------------------------------------------------
 (6) i2___ftpack                                           8     3      5     543
                                              0 COMRAM     8     3      5
 ---------------------------------------------------------------------------------
 Estimated maximum stack depth 6
 ---------------------------------------------------------------------------------

 Call Graph Graphs:

 _main (ROOT)
   _DC_Bus_Volt_ADC
   _IO_Initiation
   _RS485_Data
   _TIMER0_INITIATE
   _VFD_CURRENT_ADC
   _VFD_Current_INITIATE
   ___ftadd
     ___ftpack
   ___ftdiv
     ___ftadd (ARG)
       ___ftpack
     ___ftpack (ARG)
   ___ftge
   ___ftmul
     ___ftadd (ARG)
       ___ftpack
     ___ftpack (ARG)
   ___fttol
     ___ftmul (ARG)
       ___ftadd (ARG)
         ___ftpack
       ___ftpack (ARG)
   ___lwtoft
     _DC_Bus_Volt_ADC (ARG)
     _VFD_CURRENT_ADC (ARG)
     ___ftpack (ARG)
   _usart_init
   _usart_str_1

 _ISR (ROOT)
   _Auto_PWM_Cal
     ___lbtoft
       i2___ftpack
     i2___ftadd
       i2___ftdiv (ARG)
         i2___ftpack
       i2___ftpack (ARG)
     i2___ftdiv
       i2___ftpack
     i2___ftmul
       ___lbtoft (ARG)
         i2___ftpack
       i2___ftpack (ARG)
     i2___fttol
       i2___ftadd (ARG)
         i2___ftdiv (ARG)
           i2___ftpack
         i2___ftpack (ARG)
       i2___ftdiv (ARG)
         i2___ftpack
   _Logic_Error_Io
   _POWER_PWM
   _Push_Button
     _Cal
       i2___ftadd
         i2___ftdiv (ARG)
           i2___ftpack
         i2___ftpack (ARG)
       i2___ftdiv
         i2___ftpack
       i2___ftmul
         ___lbtoft (ARG)
           i2___ftpack
         i2___ftpack (ARG)
       i2___fttol
         i2___ftadd (ARG)
           i2___ftdiv (ARG)
             i2___ftpack
           i2___ftpack (ARG)
         i2___ftdiv (ARG)
           i2___ftpack
     _POWER_PWM
     i2___ftadd
       i2___ftdiv (ARG)
         i2___ftpack
       i2___ftpack (ARG)
     i2___ftge
   _VFD_Current
     i2___ftge
   _VFD_SHORT_CIRCUIT_ERROR
   _Voltage_Error_Trigger
     i2___ftge

 Address spaces:
Name               Size   Autos  Total    Cost      Usage
BIGRAM             2FF      0       0      10        0.0%
EEDATA             100      0       0       0        0.0%
BITBANK2           100      0       0       8        0.0%
BANK2              100      0       0       9        0.0%
BITBANK1           100      0       0       6        0.0%
BANK1              100      0      38       7       21.9%
BITBANK0            A0      0       0       4        0.0%
BANK0               A0     3F      9F       5       99.4%
BITCOMRAM           5E      0       0       0        0.0%
COMRAM              5E     42      5E       1      100.0%
BITSFR               0      0       0      40        0.0%
SFR                  0      0       0      40        0.0%
STACK                0      0       0       2        0.0%
NULL                 0      0       0       0        0.0%
ABS                  0      0     135       3        0.0%
DATA                 0      0     135      11        0.0%
CODE                 0      0       0       0        0.0%


Microchip Technology PIC18 Macro Assembler V1.38 build -256452561 
Symbol Table                                                                                   Fri Dec 22 11:16:02 2017

               _VFD_SHORT_CIRCUIT 0056                                 _A 00F9  
                               _B 0072                                 _b 00A8  
                               _i 008D                        i2___ftpack 18B0  
                    ___ftadd@exp1 00CD                      ___ftadd@exp2 00CC  
                    ___ftadd@sign 00CB                               l615 1D62  
                             l199 06A6                               l945 1C46  
                             _GIE 007F97                               _B_1 00FC  
                             _RB0 007C08                               _RA2 007C02  
                             _RB1 007C09                               _RA3 007C03  
                             _RC0 007C10                               _RB2 007C0A  
                             _RA4 007C04                               _RC1 007C11  
                             _RB3 007C0B                               _RC2 007C12  
                             _RB4 007C0C                               _RA6 007C06  
                             _RC3 007C13                               _RB5 007C0D  
                             _RA7 007C07                               _RC4 007C14  
                             _RC5 007C15                               _ISR 0008  
                             _PSA 007EAB                               _Cal 1A80  
                             _R_C 0075                               _R_V 0081  
                             _Vab 0043                               prod 000FF3  
                             wreg 000FE8                       ?_RS485_Data 0001  
                  ??_Auto_PWM_Cal 0033            ?_Voltage_Error_Trigger 0001  
                    __CFG_LVP$OFF 000000                              ?_ISR 0001  
                            ?_Cal 0001                      ___ftdiv@cntr 00D7  
                    ___ftdiv@sign 00DC                              l1112 1BF8  
                            l1118 1BC8                              l1550 0A5A  
                            l1527 13F4                              l3410 134A  
                            l1554 0A94                              l3420 13D8  
                            l3412 1358                              l1556 0ABC  
                            l1565 0B92                              l3422 13E6  
                            l3414 1388                              l3406 1336  
                            l1574 0BBC                              l1585 107A  
                            l3434 141A                              l3418 13A8  
                            l3428 13FE                              l3700 0B86  
                            l3706 0BE6                              l3802 0F06  
                            l3716 0C34                              l3732 0FD8  
                            l3670 0AB2                              l3726 0F9E  
                            l3822 1868                              l3806 0F24  
                            l3680 0AF4                              l3664 0AA2  
                            l3752 1038                              l3690 0B3E  
                            l3658 0A68                              l3818 1828  
                            l3692 0B4A                              l3828 18AC  
                            l3772 0E40                              l3860 1190  
                            l3940 0546                              l3686 0B22  
                            l3870 11C6                              l3838 10EA  
                            l3688 0B30                              l3792 0EC8  
                            l3856 117C                              l3960 0654  
                            l3944 0554                              l3698 0B78  
                            l3778 0E7A                              l3874 11E2  
                            l3866 11AC                              l3962 0712  
                            l3796 0EE6                              l3868 11BC  
                            l3956 0626                              _ADON 007E10  
                            _ANS0 007DC0                              STR_1 04CB  
                            _ANS1 007DC1                              STR_2 04C9  
                            _ANS2 007DC2                              _ANS3 007DC3  
                            _ANS4 007DC4                              _T0CS 007EAD  
                            _T0SE 007EAC                              u3111 0A08  
                            u3121 0A26                              u3321 0F7A  
                            u3341 0FB4                              u3371 0E1C  
                            u3461 10C6                              u4237 053A  
                            u3391 0E56                              u4247 0982  
                            u3480 1110                              u4257 09E0  
                            u2690 1C30                              _PEIE 007F96  
                            u3485 1106                              _PTIE 007D1C  
                            _PTIF 007D24                              _PTEN 007BF7  
                            _TXIF 007CF4                              _Data 0112  
                            _Flag 00B9                              _main 04CE  
                    ___ftpack@arg 00BA                       _usart_str_1 1D5E  
                    ___ftpack@exp 00BD                              _temp 00B4  
                            fsr0h 000FEA                              fsr1h 000FE2  
                            fsr0l 000FE9                              fsr2h 000FDA  
                            fsr1l 000FE1                              fsr2l 000FD9  
                            btemp 005F                      i2___ftadd@f1 0018  
                    i2___ftadd@f2 001B                              pclat 000FFA  
                    i2___ftge@ff1 0001                      i2___ftge@ff2 0004  
       _Dc_Bus_Extrem_Low_Counter 0050                              prodh 000FF4  
                            prodl 000FF3                              start 03C8  
                    i2___ftdiv@f1 0009                      i2___ftdiv@f2 000C  
                    i2___ftdiv@f3 0013                     __CFG_MCLRE$ON 000000  
                    ___ftmul@cntr 00DB                      i2___ftmul@f1 000D  
                    i2___ftmul@f2 0010                      ___param_bank 000010  
                    ___ftmul@sign 00DC                      i2___fttol@f1 0024  
                           ??_ISR 0033                             ??_Cal 0033  
                    ___fttol@exp1 00EB                      ___fttol@lval 00E7  
                           ?_main 0001                             _ACSCH 007E14  
                           _ACONV 007E15                   __end_of___ftadd 0C5A  
                 __end_of___ftdiv 10B0                   __end_of___ftmul 0F64  
                 __end_of___fttol 11F4                             _PDC0H 000F78  
                           _T0PS0 007EA8                             _PDC1H 000F76  
                           _T0PS1 007EA9                             _T0PS2 007EAA  
                           _PDC2H 000F74                             _PDC0L 000F79  
                           _DTCON 000F6D                             _PDC1L 000F77  
                           _PDC2L 000F75                             i2l420 00C0  
                           i2l435 0340                             i2l427 01CA  
                           i2l438 038C                _DC_Bus_Voltage_Low 004E  
                           _TRISB 000F93                             _TXREG 000FAD  
                           _Vab_1 0120                __size_of_POWER_PWM 0024  
                   ___ftpack@sign 00BE                    __CFG_BOREN$OFF 000000  
                           tablat 000FF5                  __end_ofi2___ftge 1A80  
__size_of_VFD_SHORT_CIRCUIT_ERROR 0022                             status 000FD8  
                   i2___ftdiv@exp 0016                __size_ofi2___ftadd 01AC  
              __size_ofi2___ftdiv 00E6                __size_ofi2___ftmul 00F4  
              __size_ofi2___fttol 00F4                   __initialization 1B0A  
             __size_of_RS485_Data 002C                      __end_of_main 09F2  
               ??_DC_Bus_Volt_ADC 00BC                     i2___ftmul@exp 0016  
                  __CFG_OSC$IRCIO 000000                       ?i2___ftpack 0001  
                          ??_main 00EC                     ___fttol@sign1 00E6  
                   __activetblptr 000001             __end_of_IO_Initiation 1D46  
                 _TIMER0_INITIATE 1D46                            _ADCON1 000FC1  
                          _ADCON2 000FC0                            _ADCON3 000F9A  
                          _ACMOD0 007E12                            _ACMOD1 007E13  
                          _ADRESH 000FC4                            _ADRESL 000FC3  
                     _R_Current_1 007E                            _GASEL0 007CC8  
                          _GASEL1 007CC9                            _GBSEL0 007CCC  
                          _GBSEL1 007CCD                  __end_of___ftpack 1428  
                __end_of___lbtoft 1CBA                            _PDC0_1 009C  
                          _PDC1_1 009E                            _GODONE 007E11  
                          _PDC2_1 00A0               _DC_Bus_Voltage_High 004D  
                          i2l3220 0D44                            i2l3300 1544  
                          i2l4020 0082                            i2l4012 004E  
                          i2l3150 18CE                            i2l3214 0D28  
                          i2l1550 0C9E                            i2l4110 01A4  
                          i2l1527 193E                            i2l3160 192A  
                          i2l3152 18D8                            i2l3216 0D32  
                          i2l3208 0D06                            i2l3320 159E  
                          i2l4024 0098                            i2l3162 1934  
                          i2l3154 18F6                            i2l3146 18C0  
                          i2l3234 0DB0                            i2l3226 0D66  
                          i2l3218 0D3C                            i2l1554 0CC8  
                          i2l3330 15C6                            i2l3306 156C  
                          i2l4026 009A                            i2l3244 0DE0  
                          i2l3228 0D70                            i2l3260 1752  
                          i2l3324 15AE                            i2l4132 0234  
                          i2l4044 00D2                            i2l4036 00AE  
                          i2l1565 0D78                            i2l3158 190C  
                          i2l1574 0D94                            i2l3254 172A  
                          i2l3334 15D6                            i2l4126 0214  
                          i2l4070 0158                            i2l4062 0144  
                  __CFG_WDTEN$OFF 000000                            i2l3192 0CD6  
                          i2l3280 1790                            i2l4144 0250  
                          i2l4216 0308                            i2l1585 17B6  
                          i2l3186 0CAC                            i2l3370 14CA  
                          i2l3450 1A50                            i2l3610 1658  
                          i2l3380 14F4                            i2l3348 1454  
                          i2l3516 1BB4                            i2l3620 1696  
                          i2l3366 14BA                            i2l3446 1A20  
                          i2l3550 1256                            i2l3526 1CD4  
                          i2l3622 169E                            i2l3606 164E  
                          i2l4238 0344                            i2l4182 02B0  
                          i2l4174 029A                            i2l3384 150A  
                          i2l3376 14E2                            i2l3536 1CF0  
                          i2l3456 1A7C                            i2l3560 12BA  
                          i2l3552 125A                            i2l3624 16A0  
                          i2l3608 1656                            i2l3378 14EE  
                          i2l3562 12BE                            i2l3634 16DE  
                          i2l3636 16E6                            i2l3590 1304  
                          i2l3638 16E8                            i2l3594 1312  
                          u216_41 0C6A                            u217_41 0C7E  
                          u242_41 152C                            u244_41 1554  
                          u237_41 1712                            u239_41 173A  
                          _RCREG1 000FAE                            u248_41 1438  
                __end_of___lwtoft 1C72                            _OSCCON 000FD3  
                          _PTCON0 000F7F                            _TMR0IE 007F95  
                          _SPBRG1 000FAF                            _TMR0IF 007F92  
                          _TMR0ON 007EAF                            _PWMEN0 007B7C  
                          _PWMEN1 007B7D                            _PWMEN2 007B7E  
                          _PTPERH 000F7A                            _PTPERL 000F7B  
                          _ON_OFF 0049                            _TRISB0 007C98  
                          _TRISA2 007C92                            _TRISB1 007C99  
                          _TRISA3 007C93                            _TRISC0 007CA0  
                          _TRISB2 007C9A                            _TRISA4 007C94  
                          _TRISC1 007CA1                            _TRISB3 007C9B  
                          _TRISC2 007CA2                            _TRISB4 007C9C  
                          _TRISA6 007C96                            _TRISC3 007CA3  
                          _TRISB5 007C9D                            _TRISA7 007C97  
                          _TRISC4 007CA4                            _TRISC5 007CA5  
                          _Data_1 0096          __size_of_VFD_CURRENT_ADC 0030  
                _LOGIC_ERROR_FLAG 0054         _DC_Bus_Voltage_Extrem_Low 004C  
                          ___ftge 17E8                 __end_of_POWER_PWM 1C96  
            __end_of_Auto_PWM_Cal 19F0                         ??___ftadd 00C8  
                       ??___ftdiv 00D4                            _digit1 00AA  
                          _digit2 00AC                            _digit3 00AE  
                          _digit4 00B0                            _digit5 00B2  
                       ??___ftmul 00D4                         ??___fttol 00E1  
                    ?_VFD_Current 0001                            clear_0 1B4E  
                          clear_1 1B5A                            clear_2 1B66  
                     _Auto_VFD_ON 004B             ___ftmul@f3_as_product 00D8  
                    __pdataCOMRAM 005C                 __end_ofi2___ftadd 0E06  
         __size_of_Logic_Error_Io 001C                       _Auto_Manual 0047  
               __end_ofi2___ftdiv 17E8                    i2___ftadd@exp1 0023  
                  i2___ftadd@exp2 0022                 __end_ofi2___ftmul 1610  
               __end_ofi2___fttol 151C                    i2___ftadd@sign 0021  
                    __mediumconst 0000                            tblptrh 000FF7  
                          tblptrl 000FF6                            tblptru 000FF8  
              vDisplayAscii@F3294 0130                    i2___ftdiv@cntr 0012  
                      __accesstop 0060           __end_of__initialization 1B6C  
                  i2___ftdiv@sign 0017                        ___ftadd@f1 00C2  
                      ___ftadd@f2 00C5               __size_ofi2___ftpack 00AE  
                      ___ftge@ff1 00BA                        ___ftge@ff2 00BD  
                      _gDutycount 0059                     ___rparam_used 000001  
                      ___ftdiv@f1 00CE                        ___ftdiv@f2 00D1  
                      ___ftdiv@f3 00D8                     ??_Push_Button 0033  
                  i2___ftpack@arg 0001                    i2___ftpack@exp 0004  
                      ___lbtoft@c 000C                        ___ftmul@f1 00CE  
                      ___ftmul@f2 00D1                        ___fttol@f1 00DD  
                  __pcstackCOMRAM 0001                      __pidataBANK1 1D6C  
                  i2___ftmul@cntr 001A           __end_of_TIMER0_INITIATE 1D5E  
                  i2___ftmul@sign 001B                    i2___fttol@exp1 0032  
                      ___lwtoft@c 00C2                    i2___fttol@lval 002E  
                       ?i2___ftge 0001           ??_Voltage_Error_Trigger 000A  
                    ??_RS485_Data 00BA                        __pbssBANK0 0060  
                      __pbssBANK1 0100           _VFD_SHORT_CIRCUIT_ERROR 1CBA  
                    ?_usart_str_1 0001     __size_of_VFD_Current_INITIATE 001A  
                         ?___ftge 00BA                __end_of_RS485_Data 1C48  
               ??_VFD_CURRENT_ADC 00BC                           _T016BIT 007EAE  
             __end_of_Push_Button 131C                         ?___ftpack 00BA  
                       ?___lbtoft 0009                        ??i2___ftge 0007  
                       ?___lwtoft 00C2                           _GO_DONE 007E11  
                         _OVDCOND 000F6B                           _OVDCONS 000F6A  
                         _PWMCON0 000F6F                           _PWMCON1 000F6E  
                         _R_C_Arr 0100                           _R_C_Max 0078  
                 _DC_Bus_Volt_ADC 1BEC                           _R_V_Arr 0060  
                         _R_V_Max 0084                __end_of_SINE_TABLE 04C9  
           __size_of_Auto_PWM_Cal 0092                           _Current 0124  
                 __CFG_PWRTEN$OFF 000000                    usart_str_1@str 00BA  
                         __Hparam 0000                           __Lparam 0000  
                  _R_Current_Data 00A2                   __size_of___ftge 00C8  
                         ___ftadd 09F2                           _Voltage 012A  
                         ___ftdiv 0F64                           ___ftmul 0E06  
                         ___fttol 10B0                      __psmallconst 0400  
                ?_TIMER0_INITIATE 0001                           __pcinit 1B0A  
                    ??i2___ftpack 0006                        ??___ftpack 00BF  
                      ??___lbtoft 000C           i2___ftmul@f3_as_product 0017  
                         __ramtop 0300                           __ptext0 04CE  
                         __ptext1 1D5E                           __ptext2 1CF8  
                         __ptext3 1C48                           __ptext4 10B0  
                         __ptext5 0E06                           __ptext6 17E8  
                         __ptext7 0F64                           __ptext8 09F2  
                         __ptext9 131C              __size_of_VFD_Current 003E  
                      ??___lwtoft 00C5                      __size_of_ISR 03C0  
                    __size_of_Cal 008A                           _counter 0058  
                  _Logic_Error_Io 1CDC         ??_VFD_SHORT_CIRCUIT_ERROR 0001  
                    _Auto_PWM_Cal 195E              end_of_initialization 1B6C  
              __end_ofi2___ftpack 195E                       _Push_Button 11F4  
                       _RCSTAbits 000FAB                           postdec1 000FE5  
                         postdec2 000FDD                           postinc0 000FEE  
                         postinc2 000FDE                         _POWER_PWM 1C72  
          __end_of_Logic_Error_Io 1CF8                      _DC_Volt_High 0090  
         __end_of_DC_Bus_Volt_ADC 1C1C                         _TRISCbits 000F94  
                       i2___ftadd 0C5A                         i2___ftdiv 1702  
                       i2___ftmul 151C                         i2___fttol 1428  
                     _gDutycount1 005A                       _gDutycount2 005B  
                     ___ftdiv@exp 00DB                         _TXSTAbits 000FAC  
                      _usart_init 1CF8                   i2___ftpack@sign 0005  
            __size_of_usart_str_1 000E            __size_of_IO_Initiation 001A  
                     ___ftmul@exp 00D7                    __end_of___ftge 18B0  
                       _R_Current 007B                       _BAUDCONbits 000FAA  
                   __pidataCOMRAM 1D74                        ?_POWER_PWM 0001  
                 ?_Logic_Error_Io 0001                         _R_Voltage 008A  
             start_initialization 1B0A                 __size_ofi2___ftge 0090  
                     __end_of_ISR 03C8                       __end_of_Cal 1B0A  
                       _Frequency 005C    __size_of_Voltage_Error_Trigger 00F2  
   __end_of_Voltage_Error_Trigger 1702                         _Current_1 0127  
             _Five_Second_counter 0053                   i2___fttol@sign1 002D  
              _Dc_Bus_Low_Counter 0052                        ?i2___ftadd 0018  
                      ?i2___ftdiv 0009                        ?i2___ftmul 000D  
                      ?i2___fttol 0024                   _VFD_CURRENT_ADC 1BBC  
                        ??___ftge 00C0                       __pdataBANK1 0130  
    __end_of_VFD_Current_INITIATE 1D2C                 __size_of___ftpack 010C  
               __size_of___lbtoft 0024                       __pbssCOMRAM 0043  
                   _IO_Initiation 1D2C                         _Voltage_1 012D  
               __size_of___lwtoft 002A                     __pcstackBANK0 00BA  
                ?_DC_Bus_Volt_ADC 00BA                  _Data_Send_Flag_1 009A  
                       __pnvBANK0 00F9                       ?_usart_init 0001  
                  _Data_Send_Flag 0098                         _main$1650 00F0  
                       _main$1651 00F3                         _main$1648 00F6  
                       _main$1649 00ED                         __pintcode 0008  
                        ?___ftadd 00C2                          ?___ftdiv 00CE  
                        ?___ftmul 00CE                          ?___fttol 00DD  
                     ??_POWER_PWM 0001                       __smallconst 0400  
                  ?_IO_Initiation 0001                          _ADC_Flag 00B6  
         __end_of_VFD_CURRENT_ADC 1BEC                       ??i2___ftadd 001E  
                     ??i2___ftdiv 000F                       ??i2___ftmul 0013  
                     ??i2___fttol 0028                          _PIE1bits 000F9D  
                    ?_Push_Button 0001                          i2u250_40 1472  
                        i2u250_45 146A                          i2u309_40 16FE  
                        i2u273_40 1BB0                          _PIR1bits 000F9E  
                        i2u276_40 1CD0                          i2u279_40 1CEC  
                        i2u383_40 022A                          i2u384_40 0232  
                        _SEVTCMPL 000F71                     ??_VFD_Current 000A  
                     _DC_Volt_Low 0092                          _PWM_Init 0055  
                        i2___ftge 19F0               __size_of_usart_init 001A  
        __size_of_TIMER0_INITIATE 0018                      _Temp_Counter 00A4  
                       copy_data0 1B1E                          _R_Volt_1 0087  
                        _Error_no 00B8              _VFD_Current_INITIATE 1D12  
                        __Hrparam 0000                          __Lrparam 0000  
                    __Lsmallconst 0400                  ??_Logic_Error_Io 0001  
                __size_of___ftadd 0268                  __size_of___ftdiv 014C  
                __size_of___ftmul 015E                  __size_of___fttol 0144  
                        ___ftpack 131C                          ___lbtoft 1C96  
                 ??_IO_Initiation 00BA               _Dc_Bus_High_Counter 0051  
                        ___lwtoft 1C48          ?_VFD_SHORT_CIRCUIT_ERROR 0001  
             __end_of_VFD_Current 1BBC                  ?_VFD_CURRENT_ADC 00BA  
                        __ptext10 1D12                          __ptext11 1BBC  
                        __ptext20 11F4                          __ptext12 1D46  
                        __ptext21 19F0                          __ptext13 1C1C  
                        __ptext30 1C96                          __ptext22 1C72  
                        __ptext14 1D2C                          __ptext31 18B0  
                        __ptext23 1A80                          __ptext15 1BEC  
                        __ptext24 1CDC                          __ptext25 195E  
                        __ptext17 1610                          __ptext26 1428  
                        __ptext18 1CBA                          __ptext27 151C  
                        __ptext19 1B7E                          __ptext28 1702  
                        __ptext29 0C5A                    _Dc_Bus_Current 004F  
                   ??_usart_str_1 00BA                     __size_of_main 0524  
           ?_VFD_Current_INITIATE 0001                          int$flags 005F  
                      _RS485_Data 1C1C             _Voltage_Error_Trigger 1610  
                        intlevel2 0000                 ??_TIMER0_INITIATE 00BA  
                    ??_usart_init 00BA                        _RCSTA1bits 000FAB  
             __end_of_usart_str_1 1D6C      _VFD_SHORT_CIRCUIT_ERROR_flag 0057  
            __size_of_Push_Button 0128   __end_of_VFD_SHORT_CIRCUIT_ERROR 1CDC  
                     _VFD_Current 1B7E                        _SINE_TABLE 0401  
              __end_of_usart_init 1D12                     ?_Auto_PWM_Cal 0001  
         _Timer0_Overflow_counter 00A6            ??_VFD_Current_INITIATE 00BA  
               _Desired_Frequency 00B7          __size_of_DC_Bus_Volt_ADC 0030  
                 _DC_Voltage_Data 0094  
